(lp0
(lp1
I616
aI805
aa(lp2
I608
aI808
aa(lp3
I598
aI813
aa(lp4
I589
aI816
aa(lp5
I579
aI817
aa(lp6
I567
aI817
aa(lp7
I557
aI819
aa(lp8
I547
aI821
aa(lp9
I536
aI823
aa(lp10
I528
aI824
aa(lp11
I517
aI824
aa(lp12
I506
aI824
aa(lp13
I470
aI824
aa(lp14
I450
aI824
aa(lp15
I440
aI824
aa(lp16
I431
aI824
aa(lp17
I421
aI824
aa(lp18
I412
aI824
aa(lp19
I402
aI823
aa(lp20
I393
aI817
aa(lp21
I385
aI814
aa(lp22
I375
aI807
aa(lp23
I364
aI802
aa(lp24
I354
aI799
aa(lp25
I344
aI794
aa(lp26
I335
aI788
aa(lp27
I326
aI785
aa(lp28
I321
aI779
aa(lp29
I312
aI774
aa(lp30
I307
aI769
aa(lp31
I301
aI764
aa(lp32
I293
aI755
aa(lp33
I284
aI747
aa(lp34
I275
aI738
aa(lp35
I270
aI731
aa(lp36
I265
aI720
aa(lp37
I261
aI710
aa(lp38
I258
aI703
aa(lp39
I256
aI695
aa(lp40
I255
aI688
aa(lp41
I253
aI682
aa(lp42
I252
aI677
aa(lp43
I248
aI668
aa(lp44
I245
aI660
aa(lp45
I242
aI654
aa(lp46
I237
aI644
aa(lp47
I232
aI634
aa(lp48
I229
aI624
aa(lp49
I227
aI611
aa(lp50
I224
aI589
aa(lp51
I224
aI579
aa(lp52
I224
aI566
aa(lp53
I224
aI559
aa(lp54
I224
aI550
aa(lp55
I224
aI543
aa(lp56
I224
aI534
aa(lp57
I224
aI526
aa(lp58
I224
aI517
aa(lp59
I224
aI503
aa(lp60
I224
aI488
aa(lp61
I224
aI473
aa(lp62
I224
aI466
aa(lp63
I224
aI455
aa(lp64
I224
aI446
aa(lp65
I224
aI439
aa(lp66
I224
aI432
aa(lp67
I226
aI426
aa(lp68
I229
aI422
aa(lp69
I233
aI417
aa(lp70
I237
aI413
aa(lp71
I241
aI408
aa(lp72
I244
aI403
aa(lp73
I248
aI398
aa(lp74
I251
aI392
aa(lp75
I255
aI388
aa(lp76
I259
aI384
aa(lp77
I263
aI380
aa(lp78
I267
aI376
aa(lp79
I271
aI374
aa(lp80
I274
aI368
aa(lp81
I280
aI365
aa(lp82
I284
aI362
aa(lp83
I288
aI358
aa(lp84
I293
aI355
aa(lp85
I300
aI351
aa(lp86
I304
aI349
aa(lp87
I309
aI346
aa(lp88
I316
aI343
aa(lp89
I323
aI341
aa(lp90
I328
aI339
aa(lp91
I333
aI338
aa(lp92
I340
aI337
aa(lp93
I347
aI335
aa(lp94
I354
aI333
aa(lp95
I361
aI333
aa(lp96
I375
aI330
aa(lp97
I383
aI330
aa(lp98
I388
aI330
aa(lp99
I394
aI328
aa(lp100
I400
aI328
aa(lp101
I404
aI328
aa(lp102
I408
aI328
aa(lp103
I415
aI328
aa(lp104
I419
aI328
aa(lp105
I425
aI328
aa(lp106
I432
aI328
aa(lp107
I440
aI328
aa(lp108
I448
aI328
aa(lp109
I457
aI328
aa(lp110
I464
aI328
aa(lp111
I470
aI328
aa(lp112
I477
aI328
aa(lp113
I486
aI331
aa(lp114
I493
aI332
aa(lp115
I505
aI335
aa(lp116
I511
aI339
aa(lp117
I519
aI342
aa(lp118
I527
aI345
aa(lp119
I537
aI348
aa(lp120
I545
aI352
aa(lp121
I556
aI353
aa(lp122
I566
aI357
aa(lp123
I574
aI357
aa(lp124
I583
aI360
aa(lp125
I591
aI360
aa(lp126
I601
aI360
aa(lp127
I608
aI360
aa(lp128
I615
aI360
aa(lp129
I621
aI360
aa(lp130
I629
aI360
aa(lp131
I635
aI360
aa(lp132
I640
aI360
aa(lp133
I644
aI360
aa(lp134
I648
aI360
aa(lp135
I652
aI360
aa(lp136
I654
aI360
aa(lp137
I657
aI359
aa(lp138
I658
aI356
aa(lp139
I659
aI345
aa(lp140
I659
aI341
aa(lp141
I659
aI335
aa(lp142
I659
aI330
aa(lp143
I659
aI325
aa(lp144
I659
aI320
aa(lp145
I659
aI315
aa(lp146
I659
aI307
aa(lp147
I659
aI299
aa(lp148
I659
aI294
aa(lp149
I659
aI291
aa(lp150
I659
aI287
aa(lp151
I654
aI279
aa(lp152
I649
aI274
aa(lp153
I641
aI266
aa(lp154
I632
aI259
aa(lp155
I621
aI251
aa(lp156
I611
aI245
aa(lp157
I599
aI240
aa(lp158
I588
aI236
aa(lp159
I566
aI236
aa(lp160
I551
aI234
aa(lp161
I527
aI234
aa(lp162
I511
aI234
aa(lp163
I477
aI234
aa(lp164
I460
aI234
aa(lp165
I432
aI234
aa(lp166
I415
aI234
aa(lp167
I392
aI234
aa(lp168
I370
aI241
aa(lp169
I357
aI249
aa(lp170
I345
aI256
aa(lp171
I338
aI261
aa(lp172
I333
aI266
aa(lp173
I330
aI269
aa(lp174
I328
aI271
aa(lp175
I326
aI275
aa(lp176
I324
aI281
aa(lp177
I324
aI288
aa(lp178
I324
aI296
aa(lp179
I324
aI304
aa(lp180
I324
aI314
aa(lp181
I324
aI325
aa(lp182
I324
aI341
aa(lp183
I331
aI352
aa(lp184
I346
aI368
aa(lp185
I374
aI392
aa(lp186
I394
aI413
aa(lp187
I427
aI433
aa(lp188
I447
aI452
aa(lp189
I500
aI469
aa(lp190
I542
aI479
aa(lp191
I569
aI489
aa(lp192
I612
aI493
aa(lp193
I631
aI499
aa(lp194
I675
aI505
aa(lp195
I687
aI508
aa(lp196
I701
aI515
aa(lp197
I714
aI522
aa(lp198
I727
aI535
aa(lp199
I739
aI552
aa(lp200
I746
aI565
aa(lp201
I752
aI581
aa(lp202
I759
aI593
aa(lp203
I763
aI606
aa(lp204
I767
aI619
aa(lp205
I767
aI641
aa(lp206
I767
aI656
aa(lp207
I767
aI683
aa(lp208
I767
aI700
aa(lp209
I767
aI721
aa(lp210
I767
aI748
aa(lp211
I752
aI770
aa(lp212
I735
aI792
aa(lp213
I713
aI807
aa(lp214
I687
aI824
aa(lp215
I647
aI831
aa(lp216
I617
aI837
aa(lp217
I551
aI840
aa(lp218
I510
aI840
aa(lp219
I474
aI840
aa(lp220
I451
aI840
aa(lp221
I413
aI840
aa(lp222
I391
aI840
aa(lp223
I357
aI840
aa(lp224
I339
aI840
aa(lp225
I272
aI808
aa(lp226
I252
aI800
aa(lp227
I238
aI794
aa(lp228
I231
aI785
aa(lp229
I227
aI779
aa(lp230
I225
aI774
aa(lp231
I225
aI768
aa(lp232
I225
aI761
aa(lp233
I225
aI751
aa(lp234
I229
aI729
aa(lp235
I242
aI716
aa(lp236
I266
aI684
aa(lp237
I286
aI650
aa(lp238
I319
aI599
aa(lp239
I365
aI514
aa(lp240
I389
aI455
aa(lp241
I397
aI416
aa(lp242
I404
aI378
aa(lp243
I408
aI311
aa(lp244
I408
aI290
aa(lp245
I408
aI256
aa(lp246
I408
aI239
aa(lp247
I402
aI223
aa(lp248
I387
aI201
aa(lp249
I366
aI184
aa(lp250
I349
aI170
aa(lp251
I323
aI150
aa(lp252
I297
aI135
aa(lp253
I276
aI126
aa(lp254
I245
aI118
aa(lp255
I229
aI118
aa(lp256
I210
aI115
aa(lp257
I186
aI115
aa(lp258
I162
aI115
aa(lp259
I139
aI115
aa(lp260
I123
aI115
aa(lp261
I106
aI115
aa(lp262
I94
aI118
aa(lp263
I82
aI129
aa(lp264
I76
aI135
aa(lp265
I65
aI148
aa(lp266
I63
aI156
aa(lp267
I63
aI161
aa(lp268
I63
aI163
aa(lp269
I64
aI163
aa(lp270
I94
aI163
aa(lp271
I132
aI148
aa(lp272
I181
aI114
aa(lp273
I220
aI87
aa(lp274
I258
aI64
aa(lp275
I287
aI46
aa(lp276
I305
aI36
aa(lp277
I327
aI25
aa(lp278
I327
aI37
aa(lp279
I327
aI43
aa(lp280
I327
aI60
aa(lp281
I316
aI75
aa(lp282
I309
aI91
aa(lp283
I289
aI148
aa(lp284
I284
aI178
aa(lp285
I275
aI198
aa(lp286
I270
aI228
aa(lp287
I261
aI263
aa(lp288
I258
aI288
aa(lp289
I256
aI305
aa(lp290
I256
aI325
aa(lp291
I256
aI329
aa(lp292
I256
aI332
aa(lp293
I256
aI333
aa(lp294
I256
aI334
aa(lp295
I256
aI331
aa(lp296
I259
aI311
aa(lp297
I271
aI294
aa(lp298
I287
aI268
aa(lp299
I314
aI230
aa(lp300
I316
aI219
aa(lp301
I321
aI213
aa(lp302
I321
aI210
aa(lp303
I312
aI210
aa(lp304
I293
aI215
aa(lp305
I249
aI244
aa(lp306
I230
aI260
aa(lp307
I209
aI275
aa(lp308
I201
aI283
aa(lp309
I183
aI306
aa(lp310
I178
aI314
aa(lp311
I174
aI323
aa(lp312
I172
aI328
aa(lp313
I171
aI333
aa(lp314
I171
aI335
aa(lp315
I171
aI338
aa(lp316
I173
aI338
aa(lp317
I191
aI338
aa(lp318
I203
aI338
aa(lp319
I226
aI329
aa(lp320
I236
aI324
aa(lp321
I246
aI315
aa(lp322
I265
aI305
aa(lp323
I273
aI303
aa(lp324
I280
aI303
aa(lp325
I288
aI303
aa(lp326
I293
aI303
aa(lp327
I300
aI303
aa(lp328
I306
aI303
aa(lp329
I311
aI303
aa(lp330
I315
aI303
aa(lp331
I318
aI303
aa(lp332
I321
aI308
aa(lp333
I323
aI326
aa(lp334
I323
aI345
aa(lp335
I323
aI380
aa(lp336
I323
aI440
aa(lp337
I323
aI480
aa(lp338
I304
aI519
aa(lp339
I278
aI555
aa(lp340
I231
aI636
aa(lp341
I210
aI677
aa(lp342
I193
aI698
aa(lp343
I173
aI735
aa(lp344
I166
aI755
aa(lp345
I160
aI769
aa(lp346
I160
aI775
aa(lp347
I160
aI778
aa(lp348
I160
aI780
aa(lp349
I181
aI780
aa(lp350
I220
aI780
aa(lp351
I266
aI773
aa(lp352
I314
aI744
aa(lp353
I427
aI681
aa(lp354
I486
aI635
aa(lp355
I541
aI596
aa(lp356
I598
aI553
aa(lp357
I655
aI518
aa(lp358
I699
aI496
aa(lp359
I745
aI454
aa(lp360
I761
aI441
aa(lp361
I772
aI435
aa(lp362
I774
aI432
aa(lp363
I775
aI430
aa(lp364
I769
aI444
aa(lp365
I726
aI514
aa(lp366
I683
aI579
aa(lp367
I637
aI629
aa(lp368
I596
aI688
aa(lp369
I555
aI748
aa(lp370
I503
aI800
aa(lp371
I472
aI831
aa(lp372
I432
aI866
aa(lp373
I407
aI896
aa(lp374
I395
aI919
aa(lp375
I393
aI929
aa(lp376
I393
aI931
aa(lp377
I400
aI931
aa(lp378
I429
aI931
aa(lp379
I448
aI931
aa(lp380
I535
aI925
aa(lp381
I576
aI911
aa(lp382
I610
aI901
aa(lp383
I644
aI890
aa(lp384
I664
aI881
aa(lp385
I696
aI871
aa(lp386
I708
aI868
aa(lp387
I721
aI863
aa(lp388
I726
aI863
aa(lp389
I729
aI863
aa(lp390
I729
aI864
aa(lp391
I725
aI873
aa(lp392
I709
aI889
aa(lp393
I687
aI920
aa(lp394
I672
aI938
aa(lp395
I663
aI951
aa(lp396
I657
aI958
aa(lp397
I653
aI963
aa(lp398
I653
aI964
aa(lp399
I653
aI966
aa(lp400
I653
aI967
aa(lp401
I661
aI967
aa(lp402
I704
aI967
aa(lp403
I739
aI967
aa(lp404
I754
aI967
aa(lp405
I787
aI967
aa(lp406
I798
aI967
aa(lp407
I819
aI967
aa(lp408
I826
aI969
aa(lp409
I836
aI969
aa(lp410
I843
aI973
aa(lp411
I846
aI973
aa(lp412
I850
aI973
aa(lp413
I851
aI974
aa(lp414
I853
aI974
aa(lp415
I855
aI974
aa(lp416
I856
aI974
aa(lp417
I858
aI974
aa(lp418
I861
aI974
aa(lp419
I864
aI974
aa(lp420
I866
aI974
aa(lp421
I869
aI974
aa(lp422
I873
aI963
aa(lp423
I873
aI919
aa(lp424
I873
aI852
aa(lp425
I873
aI789
aa(lp426
I868
aI687
aa(lp427
I828
aI602
aa(lp428
I777
aI499
aa(lp429
I728
aI391
aa(lp430
I679
aI310
aa(lp431
I631
aI223
aa(lp432
I588
aI159
aa(lp433
I558
aI134
aa(lp434
I518
aI108
aa(lp435
I490
aI96
aa(lp436
I463
aI84
aa(lp437
I443
aI78
aa(lp438
I423
aI78
aa(lp439
I407
aI78
aa(lp440
I379
aI78
aa(lp441
I375
aI78
aa(lp442
I370
aI99
aa(lp443
I370
aI111
aa(lp444
I370
aI125
aa(lp445
I378
aI141
aa(lp446
I422
aI170
aa(lp447
I467
aI188
aa(lp448
I504
aI213
aa(lp449
I548
aI232
aa(lp450
I565
aI246
aa(lp451
I606
aI270
aa(lp452
I633
aI273
aa(lp453
I674
aI283
aa(lp454
I690
aI290
aa(lp455
I704
aI292
aa(lp456
I718
aI295
aa(lp457
I726
aI297
aa(lp458
I732
aI297
aa(lp459
I736
aI298
aa(lp460
I737
aI300
aa(lp461
I738
aI301
aa(lp462
I738
aI302
aa(lp463
I738
aI307
aa(lp464
I738
aI310
aa(lp465
I738
aI313
aa(lp466
I738
aI316
aa(lp467
I738
aI317
aa(lp468
I728
aI317
aa(lp469
I696
aI317
aa(lp470
I652
aI281
aa(lp471
I615
aI216
aa(lp472
I592
aI150
aa(lp473
I572
aI80
aa(lp474
I562
aI3
aa(lp475
I647
aI8
aa(lp476
I691
aI130
aa(lp477
I722
aI251
aa(lp478
I735
aI297
aa(lp479
I743
aI335
aa(lp480
I747
aI370
aa(lp481
I747
aI388
aa(lp482
I747
aI395
aa(lp483
I747
aI400
aa(lp484
I747
aI401
aa(lp485
I747
aI402
aa(lp486
I747
aI400
aa(lp487
I747
aI381
aa(lp488
I747
aI338
aa(lp489
I733
aI303
aa(lp490
I718
aI232
aa(lp491
I698
aI170
aa(lp492
I677
aI73
aa(lp493
I677
aI12
aa(lp494
I708
aI40
aa(lp495
I736
aI84
aa(lp496
I768
aI128
aa(lp497
I801
aI186
aa(lp498
I830
aI264
aa(lp499
I852
aI341
aa(lp500
I856
aI386
aa(lp501
I856
aI426
aa(lp502
I856
aI444
aa(lp503
I856
aI482
aa(lp504
I859
aI502
aa(lp505
I859
aI524
aa(lp506
I862
aI538
aa(lp507
I862
aI542
aa(lp508
I862
aI543
aa(lp509
I862
aI544
aa(lp510
I863
aI544
aa(lp511
I864
aI544
aa(lp512
I864
aI537
aa(lp513
I864
aI530
aa(lp514
I864
aI505
aa(lp515
I864
aI485
aa(lp516
I862
aI447
aa(lp517
I856
aI431
aa(lp518
I845
aI403
aa(lp519
I835
aI383
aa(lp520
I835
aI382
aa(lp521
I835
aI390
aa(lp522
I835
aI417
aa(lp523
I839
aI466
aa(lp524
I842
aI500
aa(lp525
I850
aI559
aa(lp526
I850
aI695
aa(lp527
I850
aI858
aa(lp528
I850
aI921
aa(lp529
I850
aI994
aa(lp530
I831
aI980
aa(lp531
I831
aI920
aa(lp532
I831
aI841
aa(lp533
I831
aI763
aa(lp534
I831
aI684
aa(lp535
I831
aI577
aa(lp536
I831
aI504
aa(lp537
I831
aI426
aa(lp538
I831
aI348
aa(lp539
I831
aI320
aa(lp540
I831
aI300
aa(lp541
I831
aI274
aa(lp542
I831
aI252
aa(lp543
I831
aI238
aa(lp544
I831
aI226
aa(lp545
I831
aI212
aa(lp546
I837
aI196
aa(lp547
I839
aI195
aa(lp548
I840
aI194
aa(lp549
I840
aI192
aa(lp550
I840
aI194
aa(lp551
I840
aI224
aa(lp552
I840
aI271
aa(lp553
I840
aI317
aa(lp554
I840
aI381
aa(lp555
I840
aI457
aa(lp556
I823
aI513
aa(lp557
I810
aI592
aa(lp558
I787
aI663
aa(lp559
I778
aI712
aa(lp560
I765
aI769
aa(lp561
I748
aI821
aa(lp562
I731
aI859
aa(lp563
I724
aI870
aa(lp564
I711
aI886
aa(lp565
I704
aI893
aa(lp566
I692
aI900
aa(lp567
I675
aI907
aa(lp568
I658
aI907
aa(lp569
I641
aI907
aa(lp570
I622
aI907
aa(lp571
I607
aI907
aa(lp572
I591
aI907
aa(lp573
I567
aI891
aa(lp574
I514
aI850
aa(lp575
I481
aI839
aa(lp576
I445
aI833
aa(lp577
I405
aI823
aa(lp578
I316
aI823
aa(lp579
I270
aI823
aa(lp580
I223
aI823
aa(lp581
I190
aI837
aa(lp582
I170
aI844
aa(lp583
I156
aI849
aa(lp584
I151
aI851
aa(lp585
I149
aI851
aa(lp586
I148
aI851
aa(lp587
I147
aI851
aa(lp588
I147
aI847
aa(lp589
I147
aI836
aa(lp590
I147
aI823
aa(lp591
I147
aI807
aa(lp592
I147
aI784
aa(lp593
I147
aI765
aa(lp594
I149
aI732
aa(lp595
I157
aI716
aa(lp596
I170
aI690
aa(lp597
I178
aI669
aa(lp598
I188
aI649
aa(lp599
I191
aI628
aa(lp600
I191
aI602
aa(lp601
I191
aI589
aa(lp602
I191
aI569
aa(lp603
I191
aI559
aa(lp604
I191
aI548
aa(lp605
I185
aI538
aa(lp606
I171
aI527
aa(lp607
I148
aI511
aa(lp608
I129
aI497
aa(lp609
I104
aI480
aa(lp610
I83
aI463
aa(lp611
I67
aI452
aa(lp612
I53
aI436
aa(lp613
I45
aI420
aa(lp614
I40
aI410
aa(lp615
I36
aI391
aa(lp616
I36
aI382
aa(lp617
I36
aI375
aa(lp618
I36
aI369
aa(lp619
I36
aI363
aa(lp620
I36
aI360
aa(lp621
I36
aI359
aa(lp622
I36
aI358
aa(lp623
I37
aI365
aa(lp624
I37
aI444
aa(lp625
I37
aI511
aa(lp626
I37
aI581
aa(lp627
I42
aI654
aa(lp628
I46
aI717
aa(lp629
I55
aI780
aa(lp630
I59
aI837
aa(lp631
I67
aI879
aa(lp632
I67
aI884
aa(lp633
I67
aI885
aa(lp634
I67
aI886
aa(lp635
I70
aI886
aa(lp636
I75
aI880
aa(lp637
I75
aI859
aa(lp638
I78
aI765
aa(lp639
I86
aI706
aa(lp640
I94
aI649
aa(lp641
I102
aI583
aa(lp642
I111
aI519
aa(lp643
I119
aI469
aa(lp644
I119
aI445
aa(lp645
I123
aI398
aa(lp646
I123
aI383
aa(lp647
I123
aI374
aa(lp648
I123
aI372
aa(lp649
I123
aI374
aa(lp650
I123
aI383
aa(lp651
I118
aI431
aa(lp652
I115
aI466
aa(lp653
I115
aI513
aa(lp654
I112
aI561
aa(lp655
I108
aI629
aa(lp656
I108
aI694
aa(lp657
I108
aI767
aa(lp658
I108
aI829
aa(lp659
I108
aI892
aa(lp660
I108
aI938
aa(lp661
I108
aI954
aa(lp662
I108
aI957
aa(lp663
I108
aI958
aa(lp664
I116
aI958
aa(lp665
I130
aI951
aa(lp666
I162
aI920
aa(lp667
I192
aI881
aa(lp668
I230
aI840
aa(lp669
I267
aI785
aa(lp670
I288
aI736
aa(lp671
I304
aI682
aa(lp672
I312
aI651
aa(lp673
I342
aI546
aa(lp674
I349
aI529
aa(lp675
I355
aI511
aa(lp676
I364
aI494
aa(lp677
I366
aI483
aa(lp678
I366
aI479
aa(lp679
I368
aI476
aa(lp680
I365
aI476
aa(lp681
I349
aI476
aa(lp682
I324
aI476
aa(lp683
I289
aI476
aa(lp684
I262
aI476
aa(lp685
I229
aI479
aa(lp686
I211
aI487
aa(lp687
I186
aI499
aa(lp688
I169
aI507
aa(lp689
I156
aI512
aa(lp690
I152
aI516
aa(lp691
I150
aI518
aa(lp692
I149
aI519
aa(lp693
I149
aI521
aa(lp694
I149
aI525
aa(lp695
I149
aI527
aa(lp696
I154
aI530
aa(lp697
I162
aI534
aa(lp698
I173
aI540
aa(lp699
I193
aI550
aa(lp700
I216
aI557
aa(lp701
I246
aI567
aa(lp702
I273
aI575
aa(lp703
I309
aI577
aa(lp704
I355
aI587
aa(lp705
I397
aI590
aa(lp706
I440
aI600
aa(lp707
I484
aI607
aa(lp708
I529
aI613
aa(lp709
I571
aI620
aa(lp710
I598
aI634
aa(lp711
I633
aI648
aa(lp712
I667
aI655
aa(lp713
I684
aI665
aa(lp714
I700
aI678
aa(lp715
I710
aI685
aa(lp716
I714
aI689
aa(lp717
I715
aI691
aa(lp718
I717
aI693
aa(lp719
I717
aI694
aa(lp720
I717
aI696
aa(lp721
I717
aI697
aa(lp722
I709
aI697
aa(lp723
I672
aI700
aa(lp724
I606
aI704
aa(lp725
I421
aI723
aa(lp726
I315
aI739
aa(lp727
I107
aI789
aa(lp728
I8
aI811
aa(lp729
I24
aI833
aa(lp730
I96
aI815
aa(lp731
I175
aI801
aa(lp732
I251
aI791
aa(lp733
I317
aI791
aa(lp734
I376
aI791
aa(lp735
I430
aI791
aa(lp736
I474
aI791
aa(lp737
I507
aI791
aa(lp738
I547
aI791
aa(lp739
I568
aI791
aa(lp740
I595
aI791
aa(lp741
I620
aI791
aa(lp742
I623
aI791
aa(lp743
I625
aI791
aa(lp744
I622
aI791
aa(lp745
I607
aI791
aa(lp746
I531
aI798
aa(lp747
I486
aI812
aa(lp748
I444
aI826
aa(lp749
I413
aI843
aa(lp750
I389
aI857
aa(lp751
I360
aI876
aa(lp752
I350
aI886
aa(lp753
I337
aI894
aa(lp754
I333
aI900
aa(lp755
I330
aI903
aa(lp756
I330
aI907
aa(lp757
I330
aI910
aa(lp758
I330
aI912
aa(lp759
I341
aI920
aa(lp760
I384
aI930
aa(lp761
I421
aI930
aa(lp762
I454
aI930
aa(lp763
I492
aI930
aa(lp764
I536
aI930
aa(lp765
I580
aI930
aa(lp766
I625
aI919
aa(lp767
I660
aI899
aa(lp768
I694
aI878
aa(lp769
I736
aI833
aa(lp770
I770
aI795
aa(lp771
I794
aI763
aa(lp772
I817
aI733
aa(lp773
I843
aI684
aa(lp774
I850
aI623
aa(lp775
I854
aI573
aa(lp776
I854
aI523
aa(lp777
I854
aI444
aa(lp778
I854
aI374
aa(lp779
I854
aI309
aa(lp780
I854
aI244
aa(lp781
I850
aI183
aa(lp782
I846
aI149
aa(lp783
I841
aI99
aa(lp784
I837
aI75
aa(lp785
I837
aI59
aa(lp786
I836
aI56
aa(lp787
I834
aI54
aa(lp788
I833
aI54
aa(lp789
I832
aI54
aa(lp790
I825
aI54
aa(lp791
I818
aI54
aa(lp792
I790
aI75
aa(lp793
I776
aI89
aa(lp794
I740
aI128
aa(lp795
I653
aI231
aa(lp796
I615
aI278
aa(lp797
I546
aI377
aa(lp798
I512
aI449
aa(lp799
I512
aI465
aa(lp800
I512
aI470
aa(lp801
I512
aI473
aa(lp802
I512
aI477
aa(lp803
I525
aI477
aa(lp804
I535
aI477
aa(lp805
I566
aI477
aa(lp806
I579
aI477
aa(lp807
I598
aI477
aa(lp808
I605
aI477
aa(lp809
I612
aI477
aa(lp810
I621
aI477
aa(lp811
I623
aI477
aa(lp812
I624
aI477
aa(lp813
I626
aI477
aa(lp814
I626
aI472
aa(lp815
I624
aI467
aa(lp816
I615
aI459
aa(lp817
I603
aI449
aa(lp818
I585
aI429
aa(lp819
I570
aI413
aa(lp820
I557
aI401
aa(lp821
I547
aI391
aa(lp822
I538
aI377
aa(lp823
I531
aI365
aa(lp824
I526
aI354
aa(lp825
I520
aI343
aa(lp826
I514
aI327
aa(lp827
I510
aI319
aa(lp828
I506
aI314
aa(lp829
I501
aI308
aa(lp830
I494
aI301
aa(lp831
I487
aI294
aa(lp832
I478
aI289
aa(lp833
I466
aI281
aa(lp834
I461
aI278
aa(lp835
I458
aI275
aa(lp836
I454
aI274
aa(lp837
I451
aI274
aa(lp838
I448
aI274
aa(lp839
I447
aI274
aa(lp840
I446
aI274
aa(lp841
I443
aI274
aa(lp842
I442
aI274
aa(lp843
I441
aI274
aa(lp844
I441
aI278
aa(lp845
I441
aI280
aa(lp846
I441
aI283
aa(lp847
I441
aI285
aa(lp848
I439
aI288
aa(lp849
I439
aI290
aa(lp850
I439
aI295
aa(lp851
I439
aI299
aa(lp852
I439
aI303
aa(lp853
I439
aI305
aa(lp854
I439
aI308
aa(lp855
I439
aI312
aa(lp856
I439
aI315
aa(lp857
I439
aI319
aa(lp858
I439
aI323
aa(lp859
I439
aI325
aa(lp860
I439
aI329
aa(lp861
I439
aI332
aa(lp862
I441
aI334
aa(lp863
I443
aI338
aa(lp864
I446
aI342
aa(lp865
I449
aI346
aa(lp866
I452
aI349
aa(lp867
I454
aI353
aa(lp868
I457
aI357
aa(lp869
I458
aI361
aa(lp870
I459
aI363
aa(lp871
I461
aI366
aa(lp872
I466
aI371
aa(lp873
I467
aI373
aa(lp874
I471
aI374
aa(lp875
I473
aI377
aa(lp876
I475
aI378
aa(lp877
I477
aI380
aa(lp878
I480
aI382
aa(lp879
I482
aI383
aa(lp880
I483
aI386
aa(lp881
I486
aI387
aa(lp882
I487
aI388
aa(lp883
I488
aI391
aa(lp884
I491
aI392
aa(lp885
I493
aI395
aa(lp886
I496
aI396
aa(lp887
I498
aI398
aa(lp888
I500
aI400
aa(lp889
I502
aI402
aa(lp890
I503
aI405
aa(lp891
I506
aI407
aa(lp892
I507
aI411
aa(lp893
I508
aI415
aa(lp894
I510
aI419
aa(lp895
I511
aI425
aa(lp896
I512
aI431
aa(lp897
I514
aI435
aa(lp898
I514
aI439
aa(lp899
I515
aI442
aa(lp900
I516
aI446
aa(lp901
I517
aI451
aa(lp902
I519
aI455
aa(lp903
I519
aI459
aa(lp904
I519
aI463
aa(lp905
I519
aI469
aa(lp906
I519
aI475
aa(lp907
I519
aI479
aa(lp908
I519
aI493
aa(lp909
I519
aI497
aa(lp910
I519
aI500
aa(lp911
I519
aI503
aa(lp912
I519
aI507
aa(lp913
I519
aI509
aa(lp914
I519
aI510
aa(lp915
I519
aI514
aa(lp916
I519
aI517
aa(lp917
I519
aI519
aa(lp918
I519
aI522
aa(lp919
I519
aI526
aa(lp920
I516
aI528
aa(lp921
I512
aI532
aa(lp922
I510
aI536
aa(lp923
I507
aI539
aa(lp924
I506
aI541
aa(lp925
I502
aI544
aa(lp926
I496
aI548
aa(lp927
I491
aI553
aa(lp928
I483
aI557
aa(lp929
I482
aI558
aa(lp930
I478
aI560
aa(lp931
I474
aI562
aa(lp932
I473
aI562
aa(lp933
I471
aI562
aa(lp934
I467
aI563
aa(lp935
I464
aI565
aa(lp936
I462
aI565
aa(lp937
I459
aI565
aa(lp938
I457
aI565
aa(lp939
I456
aI565
aa(lp940
I453
aI566
aa(lp941
I451
aI566
aa(lp942
I447
aI566
aa(lp943
I444
aI566
aa(lp944
I443
aI566
aa(lp945
I440
aI566
aa(lp946
I438
aI566
aa(lp947
I437
aI566
aa(lp948
I434
aI566
aa(lp949
I432
aI566
aa(lp950
I429
aI566
aa(lp951
I427
aI566
aa(lp952
I422
aI566
aa(lp953
I420
aI566
aa(lp954
I419
aI566
aa(lp955
I417
aI562
aa(lp956
I415
aI560
aa(lp957
I413
aI557
aa(lp958
I412
aI556
aa(lp959
I410
aI552
aa(lp960
I409
aI551
aa(lp961
I409
aI548
aa(lp962
I409
aI547
aa(lp963
I408
aI543
aa(lp964
I408
aI541
aa(lp965
I408
aI539
aa(lp966
I408
aI538
aa(lp967
I408
aI537
aa(lp968
I408
aI536
aa(lp969
I408
aI534
aa(lp970
I408
aI533
aa(lp971
I408
aI531
aa(lp972
I408
aI529
aa(lp973
I408
aI528
aa(lp974
I408
aI526
aa(lp975
I408
aI524
aa(lp976
I408
aI522
aa(lp977
I408
aI518
aa(lp978
I408
aI517
aa(lp979
I413
aI509
aa(lp980
I420
aI499
aa(lp981
I423
aI495
aa(lp982
I425
aI490
aa(lp983
I428
aI487
aa(lp984
I430
aI481
aa(lp985
I433
aI479
aa(lp986
I435
aI476
aa(lp987
I439
aI474
aa(lp988
I442
aI471
aa(lp989
I444
aI469
aa(lp990
I448
aI465
aa(lp991
I454
aI459
aa(lp992
I458
aI456
aa(lp993
I464
aI450
aa(lp994
I469
aI444
aa(lp995
I472
aI440
aa(lp996
I475
aI437
aa(lp997
I477
aI435
aa(lp998
I481
aI432
aa(lp999
I487
aI427
aa(lp1000
I491
aI425
aa(lp1001
I493
aI424
aa(lp1002
I496
aI422
aa(lp1003
I498
aI421
aa(lp1004
I502
aI419
aa(lp1005
I503
aI417
aa(lp1006
I506
aI416
aa(lp1007
I507
aI415
aa(lp1008
I510
aI413
aa(lp1009
I511
aI412
aa(lp1010
I512
aI410
aa(lp1011
I514
aI408
aa(lp1012
I515
aI407
aa(lp1013
I517
aI406
aa(lp1014
I519
aI403
aa(lp1015
I521
aI401
aa(lp1016
I524
aI400
aa(lp1017
I526
aI397
aa(lp1018
I527
aI395
aa(lp1019
I529
aI392
aa(lp1020
I531
aI388
aa(lp1021
I534
aI386
aa(lp1022
I536
aI383
aa(lp1023
I539
aI379
aa(lp1024
I544
aI372
aa(lp1025
I546
aI368
aa(lp1026
I549
aI363
aa(lp1027
I550
aI358
aa(lp1028
I550
aI356
aa(lp1029
I551
aI352
aa(lp1030
I553
aI348
aa(lp1031
I553
aI346
aa(lp1032
I553
aI342
aa(lp1033
I553
aI333
aa(lp1034
I553
aI327
aa(lp1035
I553
aI323
aa(lp1036
I553
aI318
aa(lp1037
I553
aI313
aa(lp1038
I553
aI308
aa(lp1039
I553
aI304
aa(lp1040
I553
aI301
aa(lp1041
I551
aI296
aa(lp1042
I549
aI293
aa(lp1043
I545
aI290
aa(lp1044
I541
aI288
aa(lp1045
I537
aI284
aa(lp1046
I534
aI279
aa(lp1047
I531
aI276
aa(lp1048
I527
aI274
aa(lp1049
I524
aI270
aa(lp1050
I520
aI269
aa(lp1051
I516
aI264
aa(lp1052
I512
aI262
aa(lp1053
I510
aI260
aa(lp1054
I506
aI257
aa(lp1055
I502
aI255
aa(lp1056
I498
aI252
aa(lp1057
I495
aI251
aa(lp1058
I491
aI250
aa(lp1059
I488
aI250
aa(lp1060
I485
aI250
aa(lp1061
I481
aI249
aa(lp1062
I477
aI247
aa(lp1063
I473
aI245
aa(lp1064
I469
aI244
aa(lp1065
I463
aI244
aa(lp1066
I459
aI242
aa(lp1067
I456
aI242
aa(lp1068
I449
aI242
aa(lp1069
I442
aI242
aa(lp1070
I438
aI242
aa(lp1071
I435
aI242
aa(lp1072
I432
aI242
aa(lp1073
I428
aI242
aa(lp1074
I424
aI242
aa(lp1075
I420
aI242
aa(lp1076
I417
aI242
aa(lp1077
I413
aI242
aa(lp1078
I409
aI242
aa(lp1079
I405
aI242
aa(lp1080
I401
aI242
aa(lp1081
I398
aI242
aa(lp1082
I394
aI242
aa(lp1083
I390
aI242
aa(lp1084
I386
aI242
aa(lp1085
I384
aI242
aa(lp1086
I380
aI242
aa(lp1087
I376
aI242
aa(lp1088
I371
aI245
aa(lp1089
I370
aI246
aa(lp1090
I367
aI247
aa(lp1091
I365
aI250
aa(lp1092
I362
aI252
aa(lp1093
I360
aI255
aa(lp1094
I357
aI257
aa(lp1095
I356
aI260
aa(lp1096
I355
aI261
aa(lp1097
I354
aI264
aa(lp1098
I352
aI265
aa(lp1099
I350
aI267
aa(lp1100
I349
aI269
aa(lp1101
I349
aI271
aa(lp1102
I346
aI274
aa(lp1103
I345
aI275
aa(lp1104
I345
aI276
aa(lp1105
I344
aI278
aa(lp1106
I342
aI279
aa(lp1107
I342
aI281
aa(lp1108
I342
aI284
aa(lp1109
I341
aI286
aa(lp1110
I341
aI289
aa(lp1111
I341
aI290
aa(lp1112
I341
aI291
aa(lp1113
I340
aI294
aa(lp1114
I340
aI296
aa(lp1115
I340
aI298
aa(lp1116
I339
aI300
aa(lp1117
I339
aI301
aa(lp1118
I339
aI304
aa(lp1119
I337
aI306
aa(lp1120
I337
aI309
aa(lp1121
I337
aI312
aa(lp1122
I336
aI314
aa(lp1123
I336
aI317
aa(lp1124
I336
aI319
aa(lp1125
I336
aI320
aa(lp1126
I335
aI323
aa(lp1127
I335
aI327
aa(lp1128
I335
aI329
aa(lp1129
I333
aI330
aa(lp1130
I332
aI335
aa(lp1131
I330
aI338
aa(lp1132
I330
aI339
aa(lp1133
I328
aI342
aa(lp1134
I328
aI344
aa(lp1135
I327
aI346
aa(lp1136
I326
aI348
aa(lp1137
I323
aI353
aa(lp1138
I321
aI357
aa(lp1139
I320
aI361
aa(lp1140
I317
aI363
aa(lp1141
I315
aI367
aa(lp1142
I313
aI369
aa(lp1143
I312
aI371
aa(lp1144
I310
aI373
aa(lp1145
I307
aI374
aa(lp1146
I305
aI376
aa(lp1147
I302
aI377
aa(lp1148
I300
aI378
aa(lp1149
I297
aI378
aa(lp1150
I293
aI378
aa(lp1151
I291
aI379
aa(lp1152
I287
aI379
aa(lp1153
I283
aI379
aa(lp1154
I281
aI379
aa(lp1155
I277
aI379
aa(lp1156
I274
aI379
aa(lp1157
I271
aI379
aa(lp1158
I267
aI379
aa(lp1159
I263
aI379
aa(lp1160
I257
aI379
aa(lp1161
I254
aI379
aa(lp1162
I250
aI379
aa(lp1163
I248
aI379
aa(lp1164
I245
aI379
aa(lp1165
I243
aI379
aa(lp1166
I240
aI379
aa(lp1167
I238
aI379
aa(lp1168
I235
aI379
aa(lp1169
I233
aI377
aa(lp1170
I229
aI372
aa(lp1171
I225
aI365
aa(lp1172
I221
aI357
aa(lp1173
I218
aI347
aa(lp1174
I217
aI339
aa(lp1175
I215
aI316
aa(lp1176
I215
aI299
aa(lp1177
I215
aI289
aa(lp1178
I213
aI274
aa(lp1179
I213
aI267
aa(lp1180
I212
aI264
aa(lp1181
I210
aI263
aa(lp1182
I209
aI260
aa(lp1183
I208
aI257
aa(lp1184
I207
aI255
aa(lp1185
I207
aI252
aa(lp1186
I205
aI252
aa(lp1187
I205
aI250
aa(lp1188
I204
aI249
aa(lp1189
I204
aI248
aa(lp1190
I204
aI247
aa(lp1191
I204
aI244
aa(lp1192
I204
aI243
aa(lp1193
I204
aI242
aa(lp1194
I204
aI239
aa(lp1195
I204
aI238
aa(lp1196
I204
aI234
aa(lp1197
I204
aI233
aa(lp1198
I204
aI230
aa(lp1199
I204
aI225
aa(lp1200
I204
aI223
aa(lp1201
I204
aI221
aa(lp1202
I204
aI219
aa(lp1203
I204
aI218
aa(lp1204
I204
aI216
aa(lp1205
I204
aI214
aa(lp1206
I205
aI213
aa(lp1207
I207
aI211
aa(lp1208
I209
aI210
aa(lp1209
I212
aI209
aa(lp1210
I215
aI206
aa(lp1211
I218
aI205
aa(lp1212
I222
aI204
aa(lp1213
I224
aI204
aa(lp1214
I228
aI201
aa(lp1215
I232
aI200
aa(lp1216
I234
aI200
aa(lp1217
I237
aI200
aa(lp1218
I241
aI200
aa(lp1219
I242
aI200
aa(lp1220
I244
aI199
aa(lp1221
I247
aI199
aa(lp1222
I248
aI197
aa(lp1223
I251
aI197
aa(lp1224
I253
aI196
aa(lp1225
I258
aI195
aa(lp1226
I261
aI195
aa(lp1227
I263
aI195
aa(lp1228
I266
aI195
aa(lp1229
I268
aI195
aa(lp1230
I272
aI194
aa(lp1231
I275
aI194
aa(lp1232
I278
aI194
aa(lp1233
I281
aI194
aa(lp1234
I285
aI192
aa(lp1235
I287
aI192
aa(lp1236
I290
aI192
aa(lp1237
I297
aI192
aa(lp1238
I301
aI192
aa(lp1239
I305
aI192
aa(lp1240
I309
aI191
aa(lp1241
I311
aI191
aa(lp1242
I314
aI191
aa(lp1243
I317
aI191
aa(lp1244
I320
aI191
aa(lp1245
I324
aI191
aa(lp1246
I327
aI191
aa(lp1247
I335
aI191
aa(lp1248
I340
aI191
aa(lp1249
I344
aI191
aa(lp1250
I349
aI191
aa(lp1251
I354
aI191
aa(lp1252
I361
aI191
aa(lp1253
I365
aI191
aa(lp1254
I370
aI190
aa(lp1255
I374
aI190
aa(lp1256
I378
aI189
aa(lp1257
I382
aI187
aa(lp1258
I385
aI186
aa(lp1259
I389
aI184
aa(lp1260
I393
aI181
aa(lp1261
I398
aI179
aa(lp1262
I400
aI177
aa(lp1263
I404
aI175
aa(lp1264
I408
aI174
aa(lp1265
I412
aI172
aa(lp1266
I416
aI170
aa(lp1267
I423
aI166
aa(lp1268
I427
aI163
aa(lp1269
I431
aI162
aa(lp1270
I436
aI160
aa(lp1271
I439
aI157
aa(lp1272
I443
aI155
aa(lp1273
I447
aI153
aa(lp1274
I450
aI152
aa(lp1275
I453
aI151
aa(lp1276
I456
aI150
aa(lp1277
I458
aI148
aa(lp1278
I463
aI145
aa(lp1279
I466
aI143
aa(lp1280
I470
aI141
aa(lp1281
I472
aI140
aa(lp1282
I475
aI138
aa(lp1283
I478
aI137
aa(lp1284
I481
aI137
aa(lp1285
I485
aI136
aa(lp1286
I489
aI135
aa(lp1287
I491
aI133
aa(lp1288
I495
aI131
aa(lp1289
I499
aI129
aa(lp1290
I502
aI128
aa(lp1291
I505
aI127
aa(lp1292
I509
aI126
aa(lp1293
I512
aI124
aa(lp1294
I515
aI123
aa(lp1295
I518
aI123
aa(lp1296
I521
aI122
aa(lp1297
I528
aI121
aa(lp1298
I531
aI121
aa(lp1299
I536
aI121
aa(lp1300
I540
aI121
aa(lp1301
I543
aI121
aa(lp1302
I545
aI121
aa(lp1303
I548
aI121
aa(lp1304
I550
aI121
aa(lp1305
I553
aI121
aa(lp1306
I555
aI121
aa(lp1307
I558
aI121
aa(lp1308
I560
aI121
aa(lp1309
I563
aI121
aa(lp1310
I565
aI121
aa(lp1311
I568
aI121
aa(lp1312
I572
aI121
aa(lp1313
I574
aI121
aa(lp1314
I575
aI121
aa(lp1315
I578
aI121
aa(lp1316
I580
aI121
aa(lp1317
I583
aI121
aa(lp1318
I584
aI121
aa(lp1319
I586
aI121
aa(lp1320
I591
aI121
aa(lp1321
I592
aI121
aa(lp1322
I594
aI121
aa(lp1323
I596
aI121
aa(lp1324
I597
aI121
aa(lp1325
I599
aI121
aa(lp1326
I601
aI121
aa(lp1327
I603
aI121
aa(lp1328
I604
aI121
aa(lp1329
I606
aI121
aa(lp1330
I608
aI121
aa(lp1331
I611
aI121
aa(lp1332
I613
aI121
aa(lp1333
I614
aI121
aa(lp1334
I616
aI121
aa(lp1335
I621
aI121
aa(lp1336
I625
aI121
aa(lp1337
I627
aI121
aa(lp1338
I630
aI121
aa(lp1339
I631
aI121
aa(lp1340
I632
aI121
aa(lp1341
I635
aI121
aa(lp1342
I636
aI121
aa(lp1343
I637
aI121
aa(lp1344
I638
aI121
aa(lp1345
I641
aI121
aa(lp1346
I643
aI121
aa(lp1347
I645
aI121
aa(lp1348
I648
aI121
aa(lp1349
I650
aI121
aa(lp1350
I652
aI121
aa(lp1351
I655
aI121
aa(lp1352
I660
aI121
aa(lp1353
I664
aI121
aa(lp1354
I666
aI121
aa(lp1355
I670
aI121
aa(lp1356
I672
aI121
aa(lp1357
I675
aI121
aa(lp1358
I679
aI121
aa(lp1359
I682
aI121
aa(lp1360
I684
aI121
aa(lp1361
I686
aI122
aa(lp1362
I687
aI122
aa(lp1363
I689
aI122
aa(lp1364
I690
aI122
aa(lp1365
I691
aI122
aa(lp1366
I693
aI123
aa(lp1367
I694
aI123
aa(lp1368
I695
aI123
aa(lp1369
I696
aI123
aa(lp1370
I700
aI123
aa(lp1371
I704
aI123
aa(lp1372
I706
aI123
aa(lp1373
I710
aI123
aa(lp1374
I713
aI123
aa(lp1375
I714
aI123
aa(lp1376
I718
aI123
aa(lp1377
I721
aI124
aa(lp1378
I725
aI124
aa(lp1379
I728
aI124
aa(lp1380
I730
aI124
aa(lp1381
I732
aI126
aa(lp1382
I735
aI127
aa(lp1383
I739
aI128
aa(lp1384
I742
aI129
aa(lp1385
I744
aI132
aa(lp1386
I747
aI135
aa(lp1387
I748
aI137
aa(lp1388
I750
aI138
aa(lp1389
I753
aI141
aa(lp1390
I755
aI145
aa(lp1391
I758
aI148
aa(lp1392
I761
aI152
aa(lp1393
I763
aI156
aa(lp1394
I766
aI160
aa(lp1395
I771
aI170
aa(lp1396
I772
aI176
aa(lp1397
I774
aI180
aa(lp1398
I776
aI184
aa(lp1399
I777
aI187
aa(lp1400
I778
aI194
aa(lp1401
I779
aI197
aa(lp1402
I781
aI204
aa(lp1403
I782
aI208
aa(lp1404
I786
aI218
aa(lp1405
I787
aI224
aa(lp1406
I787
aI228
aa(lp1407
I787
aI239
aa(lp1408
I787
aI243
aa(lp1409
I787
aI247
aa(lp1410
I787
aI250
aa(lp1411
I787
aI254
aa(lp1412
I787
aI258
aa(lp1413
I787
aI262
aa(lp1414
I788
aI265
aa(lp1415
I788
aI269
aa(lp1416
I788
aI276
aa(lp1417
I788
aI278
aa(lp1418
I788
aI284
aa(lp1419
I788
aI288
aa(lp1420
I788
aI292
aa(lp1421
I788
aI296
aa(lp1422
I788
aI299
aa(lp1423
I788
aI303
aa(lp1424
I788
aI307
aa(lp1425
I788
aI310
aa(lp1426
I788
aI316
aa(lp1427
I788
aI320
aa(lp1428
I788
aI327
aa(lp1429
I788
aI331
aa(lp1430
I788
aI335
aa(lp1431
I788
aI338
aa(lp1432
I788
aI340
aa(lp1433
I788
aI344
aa(lp1434
I788
aI350
aa(lp1435
I788
aI351
aa(lp1436
I788
aI355
aa(lp1437
I788
aI359
aa(lp1438
I788
aI360
aa(lp1439
I788
aI364
aa(lp1440
I788
aI367
aa(lp1441
I788
aI371
aa(lp1442
I788
aI375
aa(lp1443
I788
aI383
aa(lp1444
I788
aI389
aa(lp1445
I788
aI395
aa(lp1446
I788
aI399
aa(lp1447
I788
aI405
aa(lp1448
I788
aI409
aa(lp1449
I788
aI411
aa(lp1450
I788
aI415
aa(lp1451
I788
aI419
aa(lp1452
I788
aI427
aa(lp1453
I788
aI428
aa(lp1454
I788
aI434
aa(lp1455
I788
aI438
aa(lp1456
I788
aI442
aa(lp1457
I788
aI445
aa(lp1458
I788
aI452
aa(lp1459
I788
aI458
aa(lp1460
I788
aI462
aa(lp1461
I788
aI464
aa(lp1462
I788
aI468
aa(lp1463
I788
aI474
aa(lp1464
I787
aI477
aa(lp1465
I787
aI481
aa(lp1466
I784
aI485
aa(lp1467
I783
aI488
aa(lp1468
I781
aI492
aa(lp1469
I779
aI496
aa(lp1470
I777
aI502
aa(lp1471
I777
aI503
aa(lp1472
I776
aI507
aa(lp1473
I776
aI508
aa(lp1474
I776
aI510
aa(lp1475
I774
aI512
aa(lp1476
I774
aI513
aa(lp1477
I773
aI516
aa(lp1478
I772
aI517
aa(lp1479
I772
aI519
aa(lp1480
I771
aI521
aa(lp1481
I771
aI524
aa(lp1482
I769
aI526
aa(lp1483
I768
aI527
aa(lp1484
I767
aI530
aa(lp1485
I766
aI532
aa(lp1486
I764
aI534
aa(lp1487
I763
aI535
aa(lp1488
I762
aI536
aa(lp1489
I761
aI539
aa(lp1490
I759
aI540
aa(lp1491
I758
aI541
aa(lp1492
I757
aI542
aa(lp1493
I755
aI544
aa(lp1494
I754
aI546
aa(lp1495
I753
aI547
aa(lp1496
I750
aI551
aa(lp1497
I749
aI554
aa(lp1498
I747
aI556
aa(lp1499
I745
aI560
aa(lp1500
I743
aI566
aa(lp1501
I742
aI568
aa(lp1502
I739
aI570
aa(lp1503
I738
aI571
aa(lp1504
I735
aI574
aa(lp1505
I734
aI576
aa(lp1506
I733
aI580
aa(lp1507
I732
aI581
aa(lp1508
I729
aI585
aa(lp1509
I727
aI589
aa(lp1510
I725
aI590
aa(lp1511
I723
aI594
aa(lp1512
I720
aI598
aa(lp1513
I718
aI600
aa(lp1514
I715
aI604
aa(lp1515
I713
aI607
aa(lp1516
I711
aI608
aa(lp1517
I709
aI610
aa(lp1518
I706
aI614
aa(lp1519
I705
aI615
aa(lp1520
I703
aI619
aa(lp1521
I701
aI620
aa(lp1522
I699
aI624
aa(lp1523
I696
aI627
aa(lp1524
I693
aI629
aa(lp1525
I690
aI632
aa(lp1526
I686
aI633
aa(lp1527
I684
aI636
aa(lp1528
I681
aI638
aa(lp1529
I675
aI642
aa(lp1530
I672
aI644
aa(lp1531
I669
aI646
aa(lp1532
I666
aI647
aa(lp1533
I664
aI649
aa(lp1534
I660
aI651
aa(lp1535
I653
aI653
aa(lp1536
I651
aI654
aa(lp1537
I647
aI656
aa(lp1538
I643
aI657
aa(lp1539
I640
aI658
aa(lp1540
I633
aI660
aa(lp1541
I630
aI661
aa(lp1542
I623
aI661
aa(lp1543
I620
aI662
aa(lp1544
I613
aI662
aa(lp1545
I609
aI663
aa(lp1546
I602
aI665
aa(lp1547
I598
aI665
aa(lp1548
I594
aI666
aa(lp1549
I584
aI666
aa(lp1550
I578
aI666
aa(lp1551
I574
aI666
aa(lp1552
I568
aI666
aa(lp1553
I564
aI666
aa(lp1554
I560
aI666
aa(lp1555
I557
aI666
aa(lp1556
I553
aI666
aa(lp1557
I545
aI666
aa(lp1558
I541
aI666
aa(lp1559
I538
aI666
aa(lp1560
I535
aI666
aa(lp1561
I533
aI666
aa(lp1562
I529
aI666
aa(lp1563
I525
aI666
aa(lp1564
I519
aI666
aa(lp1565
I515
aI666
aa(lp1566
I509
aI666
aa(lp1567
I501
aI666
aa(lp1568
I489
aI666
aa(lp1569
I485
aI666
aa(lp1570
I481
aI665
aa(lp1571
I473
aI662
aa(lp1572
I470
aI660
aa(lp1573
I456
aI652
aa(lp1574
I445
aI647
aa(lp1575
I442
aI644
aa(lp1576
I434
aI640
aa(lp1577
I430
aI638
aa(lp1578
I423
aI635
aa(lp1579
I416
aI632
aa(lp1580
I412
aI629
aa(lp1581
I403
aI625
aa(lp1582
I399
aI622
aa(lp1583
I394
aI619
aa(lp1584
I390
aI618
aa(lp1585
I386
aI615
aa(lp1586
I379
aI612
aa(lp1587
I375
aI609
aa(lp1588
I371
aI605
aa(lp1589
I360
aI596
aa(lp1590
I356
aI590
aa(lp1591
I352
aI588
aa(lp1592
I348
aI584
aa(lp1593
I344
aI581
aa(lp1594
I341
aI579
aa(lp1595
I334
aI574
aa(lp1596
I331
aI572
aa(lp1597
I329
aI572
aa(lp1598
I325
aI572
aa(lp1599
I323
aI571
aa(lp1600
I320
aI570
aa(lp1601
I318
aI570
aa(lp1602
I315
aI570
aa(lp1603
I312
aI570
aa(lp1604
I309
aI570
aa(lp1605
I307
aI570
aa(lp1606
I305
aI570
aa(lp1607
I301
aI570
aa(lp1608
I297
aI570
aa(lp1609
I295
aI570
aa(lp1610
I291
aI570
aa(lp1611
I284
aI570
aa(lp1612
I280
aI570
aa(lp1613
I276
aI570
aa(lp1614
I272
aI570
aa(lp1615
I268
aI570
aa(lp1616
I265
aI570
aa(lp1617
I257
aI570
aa(lp1618
I253
aI570
aa(lp1619
I250
aI570
aa(lp1620
I246
aI570
aa(lp1621
I242
aI570
aa(lp1622
I239
aI570
aa(lp1623
I237
aI570
aa(lp1624
I234
aI570
aa(lp1625
I232
aI570
aa(lp1626
I229
aI570
aa(lp1627
I227
aI570
aa(lp1628
I224
aI570
aa(lp1629
I223
aI570
aa(lp1630
I222
aI570
aa(lp1631
I219
aI571
aa(lp1632
I218
aI572
aa(lp1633
I217
aI574
aa(lp1634
I214
aI575
aa(lp1635
I212
aI577
aa(lp1636
I209
aI580
aa(lp1637
I208
aI581
aa(lp1638
I205
aI584
aa(lp1639
I204
aI585
aa(lp1640
I203
aI589
aa(lp1641
I202
aI590
aa(lp1642
I199
aI593
aa(lp1643
I197
aI596
aa(lp1644
I195
aI598
aa(lp1645
I193
aI600
aa(lp1646
I188
aI605
aa(lp1647
I187
aI606
aa(lp1648
I180
aI613
aa(lp1649
I179
aI614
aa(lp1650
I178
aI615
aa(lp1651
I175
aI618
aa(lp1652
I174
aI619
aa(lp1653
I171
aI621
aa(lp1654
I169
aI624
aa(lp1655
I168
aI625
aa(lp1656
I166
aI626
aa(lp1657
I165
aI628
aa(lp1658
I164
aI629
aa(lp1659
I163
aI630
aa(lp1660
I161
aI632
aa(lp1661
I159
aI635
aa(lp1662
I158
aI637
aa(lp1663
I156
aI638
aa(lp1664
I155
aI639
aa(lp1665
I155
aI642
aa(lp1666
I154
aI643
aa(lp1667
I154
aI644
aa(lp1668
I154
aI649
aa(lp1669
I154
aI653
aa(lp1670
I153
aI657
aa(lp1671
I153
aI659
aa(lp1672
I153
aI662
aa(lp1673
I153
aI666
aa(lp1674
I153
aI668
aa(lp1675
I153
aI672
aa(lp1676
I153
aI676
aa(lp1677
I153
aI679
aa(lp1678
I153
aI686
aa(lp1679
I153
aI689
aa(lp1680
I153
aI693
aa(lp1681
I153
aI700
aa(lp1682
I153
aI702
aa(lp1683
I153
aI706
aa(lp1684
I153
aI710
aa(lp1685
I153
aI717
aa(lp1686
I153
aI721
aa(lp1687
I153
aI723
aa(lp1688
I153
aI727
aa(lp1689
I153
aI731
aa(lp1690
I153
aI736
aa(lp1691
I153
aI739
aa(lp1692
I153
aI741
aa(lp1693
I153
aI745
aa(lp1694
I153
aI749
aa(lp1695
I153
aI750
aa(lp1696
I153
aI752
aa(lp1697
I153
aI755
aa(lp1698
I153
aI756
aa(lp1699
I150
aI756
aa(lp1700
I149
aI757
aa(lp1701
I148
aI761
aa(lp1702
I146
aI765
aa(lp1703
I146
aI768
aa(lp1704
I146
aI771
aa(lp1705
I146
aI773
aa(lp1706
I146
aI776
aa(lp1707
I146
aI778
aa(lp1708
I146
aI779
aa(lp1709
I146
aI783
aa(lp1710
I146
aI785
aa(lp1711
I146
aI788
aa(lp1712
I146
aI790
aa(lp1713
I146
aI793
aa(lp1714
I146
aI795
aa(lp1715
I146
aI798
aa(lp1716
I146
aI799
aa(lp1717
I146
aI801
aa(lp1718
I146
aI803
aa(lp1719
I150
aI803
aa(lp1720
I153
aI803
aa(lp1721
I156
aI803
aa(lp1722
I160
aI803
aa(lp1723
I163
aI803
aa(lp1724
I165
aI803
aa(lp1725
I168
aI803
aa(lp1726
I170
aI803
aa(lp1727
I174
aI804
aa(lp1728
I176
aI805
aa(lp1729
I184
aI809
aa(lp1730
I188
aI812
aa(lp1731
I192
aI814
aa(lp1732
I197
aI818
aa(lp1733
I202
aI822
aa(lp1734
I208
aI825
aa(lp1735
I218
aI830
aa(lp1736
I229
aI838
aa(lp1737
I236
aI842
aa(lp1738
I242
aI844
aa(lp1739
I250
aI848
aa(lp1740
I259
aI851
aa(lp1741
I265
aI854
aa(lp1742
I273
aI857
aa(lp1743
I279
aI859
aa(lp1744
I285
aI862
aa(lp1745
I290
aI864
aa(lp1746
I296
aI868
aa(lp1747
I300
aI871
aa(lp1748
I306
aI876
aa(lp1749
I311
aI877
aa(lp1750
I315
aI879
aa(lp1751
I325
aI883
aa(lp1752
I327
aI884
aa(lp1753
I331
aI885
aa(lp1754
I335
aI885
aa(lp1755
I339
aI887
aa(lp1756
I346
aI887
aa(lp1757
I352
aI887
aa(lp1758
I357
aI887
aa(lp1759
I365
aI887
aa(lp1760
I371
aI887
aa(lp1761
I379
aI887
aa(lp1762
I385
aI887
aa(lp1763
I391
aI887
aa(lp1764
I398
aI887
aa(lp1765
I405
aI887
aa(lp1766
I413
aI887
aa(lp1767
I418
aI887
aa(lp1768
I426
aI887
aa(lp1769
I433
aI887
aa(lp1770
I441
aI887
aa(lp1771
I450
aI887
aa(lp1772
I460
aI887
aa(lp1773
I475
aI887
aa(lp1774
I483
aI887
aa(lp1775
I488
aI887
aa(lp1776
I492
aI887
aa(lp1777
I496
aI887
aa(lp1778
I502
aI887
aa(lp1779
I506
aI887
aa(lp1780
I510
aI887
aa(lp1781
I513
aI887
aa(lp1782
I516
aI887
aa(lp1783
I520
aI887
aa(lp1784
I524
aI887
aa(lp1785
I526
aI887
aa(lp1786
I529
aI887
aa(lp1787
I531
aI887
aa(lp1788
I535
aI887
aa(lp1789
I538
aI887
aa(lp1790
I540
aI887
aa(lp1791
I543
aI887
aa(lp1792
I548
aI887
aa(lp1793
I550
aI887
aa(lp1794
I553
aI887
aa(lp1795
I555
aI887
aa(lp1796
I558
aI887
aa(lp1797
I560
aI887
aa(lp1798
I568
aI887
aa(lp1799
I572
aI887
aa(lp1800
I576
aI887
aa(lp1801
I579
aI887
aa(lp1802
I583
aI887
aa(lp1803
I586
aI887
aa(lp1804
I589
aI887
aa(lp1805
I593
aI887
aa(lp1806
I596
aI887
aa(lp1807
I599
aI887
aa(lp1808
I602
aI887
aa(lp1809
I606
aI887
aa(lp1810
I610
aI887
aa(lp1811
I612
aI887
aa(lp1812
I615
aI887
aa(lp1813
I618
aI887
aa(lp1814
I621
aI887
aa(lp1815
I626
aI887
aa(lp1816
I632
aI887
aa(lp1817
I635
aI888
aa(lp1818
I637
aI889
aa(lp1819
I640
aI890
aa(lp1820
I642
aI890
aa(lp1821
I646
aI892
aa(lp1822
I647
aI893
aa(lp1823
I651
aI893
aa(lp1824
I654
aI894
aa(lp1825
I656
aI895
aa(lp1826
I659
aI897
aa(lp1827
I661
aI898
aa(lp1828
I664
aI898
aa(lp1829
I666
aI899
aa(lp1830
I669
aI900
aa(lp1831
I671
aI903
aa(lp1832
I674
aI904
aa(lp1833
I676
aI905
aa(lp1834
I679
aI907
aa(lp1835
I683
aI907
aa(lp1836
I685
aI908
aa(lp1837
I689
aI909
aa(lp1838
I691
aI909
aa(lp1839
I695
aI910
aa(lp1840
I698
aI912
aa(lp1841
I701
aI912
aa(lp1842
I705
aI912
aa(lp1843
I709
aI913
aa(lp1844
I712
aI913
aa(lp1845
I715
aI914
aa(lp1846
I719
aI914
aa(lp1847
I722
aI914
aa(lp1848
I724
aI915
aa(lp1849
I729
aI915
aa(lp1850
I732
aI915
aa(lp1851
I733
aI917
aa(lp1852
I735
aI917
aa(lp1853
I740
aI917
aa(lp1854
I747
aI917
aa(lp1855
I748
aI917
aa(lp1856
I753
aI917
aa(lp1857
I756
aI917
aa(lp1858
I758
aI917
aa(lp1859
I762
aI913
aa(lp1860
I764
aI909
aa(lp1861
I770
aI902
aa(lp1862
I775
aI895
aa(lp1863
I778
aI885
aa(lp1864
I781
aI876
aa(lp1865
I783
aI870
aa(lp1866
I786
aI863
aa(lp1867
I788
aI857
aa(lp1868
I791
aI850
aa(lp1869
I794
aI842
aa(lp1870
I797
aI828
aa(lp1871
I800
aI821
aa(lp1872
I801
aI813
aa(lp1873
I801
aI804
aa(lp1874
I803
aI798
aa(lp1875
I804
aI790
aa(lp1876
I806
aI784
aa(lp1877
I807
aI776
aa(lp1878
I809
aI770
aa(lp1879
I810
aI764
aa(lp1880
I813
aI757
aa(lp1881
I815
aI752
aa(lp1882
I817
aI745
aa(lp1883
I819
aI738
aa(lp1884
I820
aI733
aa(lp1885
I825
aI726
aa(lp1886
I827
aI722
aa(lp1887
I830
aI715
aa(lp1888
I837
aI704
aa(lp1889
I846
aI690
aa(lp1890
I847
aI688
aa(lp1891
I850
aI682
aa(lp1892
I851
aI680
aa(lp1893
I852
aI675
aa(lp1894
I853
aI670
aa(lp1895
I855
aI668
aa(lp1896
I855
aI665
aa(lp1897
I855
aI663
aa(lp1898
I855
aI662
aa(lp1899
I855
aI659
aa(lp1900
I856
aI657
aa(lp1901
I857
aI653
aa(lp1902
I855
aI653
aa(lp1903
I855
aI652
aa(lp1904
I855
aI636
aa(lp1905
I855
aI628
aa(lp1906
I855
aI614
aa(lp1907
I855
aI599
aa(lp1908
I855
aI583
aa(lp1909
I855
aI567
aa(lp1910
I855
aI555
aa(lp1911
I857
aI534
aa(lp1912
I863
aI516
aa(lp1913
I870
aI494
aa(lp1914
I874
aI483
aa(lp1915
I881
aI465
aa(lp1916
I883
aI457
aa(lp1917
I887
aI446
aa(lp1918
I892
aI440
aa(lp1919
I901
aI422
aa(lp1920
I909
aI405
aa(lp1921
I915
aI395
aa(lp1922
I924
aI378
aa(lp1923
I930
aI368
aa(lp1924
I936
aI355
aa(lp1925
I940
aI347
aa(lp1926
I946
aI336
aa(lp1927
I953
aI319
aa(lp1928
I957
aI310
aa(lp1929
I959
aI303
aa(lp1930
I960
aI298
aa(lp1931
I962
aI289
aa(lp1932
I964
aI282
aa(lp1933
I965
aI269
aa(lp1934
I967
aI261
aa(lp1935
I967
aI246
aa(lp1936
I967
aI241
aa(lp1937
I967
aI237
aa(lp1938
I967
aI233
aa(lp1939
I967
aI231
aa(lp1940
I967
aI228
aa(lp1941
I967
aI224
aa(lp1942
I967
aI223
aa(lp1943
I967
aI220
aa(lp1944
I967
aI215
aa(lp1945
I967
aI211
aa(lp1946
I964
aI209
aa(lp1947
I956
aI201
aa(lp1948
I946
aI192
aa(lp1949
I934
aI182
aa(lp1950
I929
aI177
aa(lp1951
I925
aI173
aa(lp1952
I918
aI170
aa(lp1953
I913
aI167
aa(lp1954
I909
aI163
aa(lp1955
I901
aI158
aa(lp1956
I896
aI155
aa(lp1957
I886
aI151
aa(lp1958
I879
aI150
aa(lp1959
I869
aI145
aa(lp1960
I851
aI139
aa(lp1961
I832
aI134
aa(lp1962
I824
aI133
aa(lp1963
I816
aI129
aa(lp1964
I811
aI126
aa(lp1965
I801
aI123
aa(lp1966
I796
aI121
aa(lp1967
I788
aI118
aa(lp1968
I780
aI114
aa(lp1969
I775
aI111
aa(lp1970
I758
aI106
aa(lp1971
I749
aI103
aa(lp1972
I744
aI102
aa(lp1973
I735
aI100
aa(lp1974
I727
aI98
aa(lp1975
I718
aI98
aa(lp1976
I714
aI97
aa(lp1977
I707
aI97
aa(lp1978
I699
aI96
aa(lp1979
I695
aI96
aa(lp1980
I688
aI96
aa(lp1981
I672
aI94
aa(lp1982
I668
aI94
aa(lp1983
I660
aI93
aa(lp1984
I652
aI93
aa(lp1985
I647
aI93
aa(lp1986
I639
aI93
aa(lp1987
I632
aI91
aa(lp1988
I627
aI91
aa(lp1989
I619
aI91
aa(lp1990
I610
aI91
aa(lp1991
I602
aI91
aa(lp1992
I594
aI90
aa(lp1993
I587
aI88
aa(lp1994
I579
aI88
aa(lp1995
I575
aI88
aa(lp1996
I566
aI87
aa(lp1997
I562
aI87
aa(lp1998
I553
aI87
aa(lp1999
I545
aI87
aa(lp2000
I536
aI87
aa(lp2001
I528
aI87
aa(lp2002
I518
aI87
aa(lp2003
I510
aI85
aa(lp2004
I502
aI85
aa(lp2005
I492
aI85
aa(lp2006
I485
aI85
aa(lp2007
I475
aI85
aa(lp2008
I467
aI85
aa(lp2009
I458
aI85
aa(lp2010
I453
aI85
aa(lp2011
I444
aI85
aa(lp2012
I436
aI85
aa(lp2013
I427
aI85
aa(lp2014
I419
aI85
aa(lp2015
I415
aI85
aa(lp2016
I407
aI85
aa(lp2017
I402
aI85
aa(lp2018
I394
aI85
aa(lp2019
I389
aI85
aa(lp2020
I385
aI84
aa(lp2021
I381
aI82
aa(lp2022
I377
aI82
aa(lp2023
I370
aI82
aa(lp2024
I363
aI82
aa(lp2025
I359
aI82
aa(lp2026
I355
aI82
aa(lp2027
I353
aI82
aa(lp2028
I349
aI81
aa(lp2029
I345
aI80
aa(lp2030
I341
aI79
aa(lp2031
I338
aI79
aa(lp2032
I334
aI79
aa(lp2033
I330
aI79
aa(lp2034
I326
aI77
aa(lp2035
I323
aI77
aa(lp2036
I319
aI77
aa(lp2037
I316
aI77
aa(lp2038
I312
aI77
aa(lp2039
I310
aI77
aa(lp2040
I309
aI77
aa(lp2041
I306
aI76
aa(lp2042
I304
aI76
aa(lp2043
I300
aI75
aa(lp2044
I297
aI74
aa(lp2045
I295
aI74
aa(lp2046
I291
aI74
aa(lp2047
I287
aI74
aa(lp2048
I283
aI74
aa(lp2049
I280
aI74
aa(lp2050
I273
aI74
aa(lp2051
I270
aI74
aa(lp2052
I266
aI74
aa(lp2053
I263
aI74
aa(lp2054
I260
aI74
aa(lp2055
I256
aI74
aa(lp2056
I252
aI74
aa(lp2057
I242
aI74
aa(lp2058
I238
aI74
aa(lp2059
I234
aI74
aa(lp2060
I228
aI74
aa(lp2061
I224
aI74
aa(lp2062
I217
aI74
aa(lp2063
I210
aI74
aa(lp2064
I204
aI74
aa(lp2065
I198
aI76
aa(lp2066
I192
aI76
aa(lp2067
I188
aI77
aa(lp2068
I182
aI77
aa(lp2069
I178
aI79
aa(lp2070
I174
aI79
aa(lp2071
I170
aI80
aa(lp2072
I166
aI80
aa(lp2073
I163
aI80
aa(lp2074
I159
aI80
aa(lp2075
I156
aI81
aa(lp2076
I148
aI81
aa(lp2077
I145
aI82
aa(lp2078
I141
aI84
aa(lp2079
I139
aI85
aa(lp2080
I136
aI86
aa(lp2081
I131
aI90
aa(lp2082
I129
aI92
aa(lp2083
I127
aI94
aa(lp2084
I125
aI96
aa(lp2085
I124
aI100
aa(lp2086
I122
aI101
aa(lp2087
I122
aI104
aa(lp2088
I122
aI106
aa(lp2089
I122
aI109
aa(lp2090
I122
aI113
aa(lp2091
I122
aI115
aa(lp2092
I122
aI119
aa(lp2093
I121
aI123
aa(lp2094
I121
aI126
aa(lp2095
I121
aI130
aa(lp2096
I121
aI138
aa(lp2097
I121
aI142
aa(lp2098
I121
aI148
aa(lp2099
I121
aI152
aa(lp2100
I121
aI155
aa(lp2101
I121
aI159
aa(lp2102
I121
aI165
aa(lp2103
I121
aI169
aa(lp2104
I121
aI176
aa(lp2105
I120
aI179
aa(lp2106
I120
aI183
aa(lp2107
I120
aI193
aa(lp2108
I120
aI197
aa(lp2109
I120
aI199
aa(lp2110
I120
aI203
aa(lp2111
I120
aI207
aa(lp2112
I120
aI211
aa(lp2113
I120
aI215
aa(lp2114
I120
aI217
aa(lp2115
I120
aI220
aa(lp2116
I120
aI223
aa(lp2117
I120
aI227
aa(lp2118
I120
aI230
aa(lp2119
I120
aI233
aa(lp2120
I120
aI237
aa(lp2121
I120
aI244
aa(lp2122
I120
aI246
aa(lp2123
I120
aI250
aa(lp2124
I120
aI254
aa(lp2125
I120
aI257
aa(lp2126
I120
aI261
aa(lp2127
I120
aI269
aa(lp2128
I120
aI275
aa(lp2129
I120
aI278
aa(lp2130
I120
aI284
aa(lp2131
I120
aI288
aa(lp2132
I120
aI291
aa(lp2133
I120
aI298
aa(lp2134
I120
aI301
aa(lp2135
I120
aI305
aa(lp2136
I120
aI312
aa(lp2137
I120
aI315
aa(lp2138
I120
aI322
aa(lp2139
I120
aI325
aa(lp2140
I120
aI332
aa(lp2141
I120
aI335
aa(lp2142
I120
aI339
aa(lp2143
I120
aI346
aa(lp2144
I120
aI353
aa(lp2145
I120
aI357
aa(lp2146
I120
aI366
aa(lp2147
I120
aI373
aa(lp2148
I120
aI380
aa(lp2149
I120
aI388
aa(lp2150
I120
aI395
aa(lp2151
I120
aI402
aa(lp2152
I120
aI406
aa(lp2153
I120
aI416
aa(lp2154
I121
aI420
aa(lp2155
I121
aI428
aa(lp2156
I123
aI437
aa(lp2157
I123
aI444
aa(lp2158
I123
aI454
aa(lp2159
I123
aI465
aa(lp2160
I124
aI474
aa(lp2161
I124
aI486
aa(lp2162
I124
aI494
aa(lp2163
I124
aI504
aa(lp2164
I126
aI514
aa(lp2165
I128
aI531
aa(lp2166
I129
aI539
aa(lp2167
I129
aI544
aa(lp2168
I131
aI554
aa(lp2169
I133
aI559
aa(lp2170
I134
aI570
aa(lp2171
I136
aI579
aa(lp2172
I136
aI589
aa(lp2173
I138
aI597
aa(lp2174
I138
aI606
aa(lp2175
I139
aI611
aa(lp2176
I139
aI619
aa(lp2177
I139
aI623
aa(lp2178
I139
aI626
aa(lp2179
I139
aI629
aa(lp2180
I139
aI630
aa(lp2181
I139
aI632
aa(lp2182
I139
aI634
aa(lp2183
I138
aI630
aa(lp2184
I135
aI623
aa(lp2185
I134
aI615
aa(lp2186
I129
aI607
aa(lp2187
I126
aI597
aa(lp2188
I122
aI583
aa(lp2189
I118
aI576
aa(lp2190
I117
aI562
aa(lp2191
I115
aI552
aa(lp2192
I111
aI541
aa(lp2193
I109
aI534
aa(lp2194
I106
aI525
aa(lp2195
I104
aI520
aa(lp2196
I102
aI512
aa(lp2197
I99
aI504
aa(lp2198
I96
aI487
aa(lp2199
I92
aI477
aa(lp2200
I92
aI469
aa(lp2201
I91
aI460
aa(lp2202
I88
aI451
aa(lp2203
I84
aI444
aa(lp2204
I83
aI435
aa(lp2205
I81
aI427
aa(lp2206
I80
aI419
aa(lp2207
I77
aI411
aa(lp2208
I75
aI405
aa(lp2209
I73
aI397
aa(lp2210
I70
aI391
aa(lp2211
I69
aI383
aa(lp2212
I67
aI377
aa(lp2213
I66
aI369
aa(lp2214
I64
aI363
aa(lp2215
I63
aI354
aa(lp2216
I61
aI348
aa(lp2217
I60
aI339
aa(lp2218
I57
aI326
aa(lp2219
I54
aI317
aa(lp2220
I52
aI311
aa(lp2221
I49
aI305
aa(lp2222
I48
aI298
aa(lp2223
I46
aI290
aa(lp2224
I45
aI284
aa(lp2225
I43
aI277
aa(lp2226
I42
aI270
aa(lp2227
I40
aI265
aa(lp2228
I37
aI258
aa(lp2229
I36
aI253
aa(lp2230
I35
aI248
aa(lp2231
I33
aI241
aa(lp2232
I32
aI237
aa(lp2233
I30
aI231
aa(lp2234
I29
aI226
aa(lp2235
I29
aI222
aa(lp2236
I28
aI218
aa(lp2237
I27
aI213
aa(lp2238
I25
aI209
aa(lp2239
I24
aI203
aa(lp2240
I23
aI197
aa(lp2241
I22
aI194
aa(lp2242
I20
aI192
aa(lp2243
I20
aI190
aa(lp2244
I20
aI188
aa(lp2245
I19
aI188
aa(lp2246
I19
aI187
aa(lp2247
I19
aI188
aa(lp2248
I19
aI194
aa(lp2249
I19
aI214
aa(lp2250
I19
aI228
aa(lp2251
I19
aI256
aa(lp2252
I19
aI279
aa(lp2253
I19
aI302
aa(lp2254
I19
aI335
aa(lp2255
I19
aI365
aa(lp2256
I19
aI390
aa(lp2257
I19
aI421
aa(lp2258
I28
aI479
aa(lp2259
I33
aI505
aa(lp2260
I42
aI542
aa(lp2261
I48
aI569
aa(lp2262
I60
aI612
aa(lp2263
I70
aI656
aa(lp2264
I80
aI695
aa(lp2265
I90
aI735
aa(lp2266
I96
aI776
aa(lp2267
I103
aI813
aa(lp2268
I110
aI834
aa(lp2269
I113
aI848
aa(lp2270
I117
aI859
aa(lp2271
I119
aI863
aa(lp2272
I119
aI864
aa(lp2273
I119
aI865
aa(lp2274
I119
aI866
aa(lp2275
I122
aI866
aa(lp2276
I123
aI866
aa(lp2277
I123
aI861
aa(lp2278
I123
aI835
aa(lp2279
I123
aI792
aa(lp2280
I123
aI757
aa(lp2281
I123
aI703
aa(lp2282
I123
aI637
aa(lp2283
I123
aI572
aa(lp2284
I123
aI509
aa(lp2285
I123
aI446
aa(lp2286
I123
aI391
aa(lp2287
I123
aI341
aa(lp2288
I123
aI308
aa(lp2289
I123
aI278
aa(lp2290
I123
aI262
aa(lp2291
I123
aI247
aa(lp2292
I125
aI235
aa(lp2293
I127
aI229
aa(lp2294
I127
aI226
aa(lp2295
I128
aI225
aa(lp2296
I130
aI224
aa(lp2297
I131
aI223
aa(lp2298
I132
aI221
aa(lp2299
I137
aI221
aa(lp2300
I140
aI221
aa(lp2301
I146
aI221
aa(lp2302
I150
aI221
aa(lp2303
I159
aI233
aa(lp2304
I163
aI244
aa(lp2305
I171
aI277
aa(lp2306
I174
aI297
aa(lp2307
I183
aI332
aa(lp2308
I185
aI352
aa(lp2309
I191
aI390
aa(lp2310
I194
aI408
aa(lp2311
I203
aI428
aa(lp2312
I205
aI441
aa(lp2313
I208
aI453
aa(lp2314
I210
aI459
aa(lp2315
I211
aI463
aa(lp2316
I211
aI464
aa(lp2317
I211
aI466
aa(lp2318
I211
aI464
aa(lp2319
I211
aI434
aa(lp2320
I211
aI376
aa(lp2321
I211
aI318
aa(lp2322
I211
aI263
aa(lp2323
I211
aI205
aa(lp2324
I211
aI152
aa(lp2325
I215
aI95
aa(lp2326
I223
aI18
aa(lp2327
I239
aI26
aa(lp2328
I249
aI111
aa(lp2329
I253
aI175
aa(lp2330
I261
aI241
aa(lp2331
I266
aI300
aa(lp2332
I274
aI369
aa(lp2333
I279
aI416
aa(lp2334
I287
aI476
aa(lp2335
I287
aI522
aa(lp2336
I295
aI600
aa(lp2337
I303
aI681
aa(lp2338
I307
aI707
aa(lp2339
I307
aI710
aa(lp2340
I310
aI727
aa(lp2341
I310
aI729
aa(lp2342
I313
aI729
aa(lp2343
I316
aI722
aa(lp2344
I316
aI687
aa(lp2345
I316
aI635
aa(lp2346
I320
aI575
aa(lp2347
I333
aI493
aa(lp2348
I347
aI404
aa(lp2349
I367
aI317
aa(lp2350
I386
aI234
aa(lp2351
I406
aI170
aa(lp2352
I429
aI113
aa(lp2353
I439
aI67
aa(lp2354
I443
aI51
aa(lp2355
I448
aI38
aa(lp2356
I449
aI38
aa(lp2357
I452
aI38
aa(lp2358
I453
aI49
aa(lp2359
I458
aI78
aa(lp2360
I465
aI119
aa(lp2361
I485
aI181
aa(lp2362
I497
aI248
aa(lp2363
I519
aI314
aa(lp2364
I542
aI386
aa(lp2365
I565
aI469
aa(lp2366
I588
aI534
aa(lp2367
I621
aI679
aa(lp2368
I630
aI720
aa(lp2369
I638
aI749
aa(lp2370
I654
aI797
aa(lp2371
I658
aI822
aa(lp2372
I662
aI846
aa(lp2373
I665
aI860
aa(lp2374
I665
aI865
aa(lp2375
I665
aI866
aa(lp2376
I665
aI867
aa(lp2377
I665
aI858
aa(lp2378
I665
aI821
aa(lp2379
I665
aI761
aa(lp2380
I665
aI674
aa(lp2381
I665
aI585
aa(lp2382
I665
aI490
aa(lp2383
I665
aI376
aa(lp2384
I665
aI285
aa(lp2385
I665
aI195
aa(lp2386
I670
aI121
aa(lp2387
I685
aI92
aa(lp2388
I688
aI79
aa(lp2389
I689
aI76
aa(lp2390
I690
aI75
aa(lp2391
I693
aI75
aa(lp2392
I697
aI75
aa(lp2393
I698
aI84
aa(lp2394
I701
aI117
aa(lp2395
I705
aI225
aa(lp2396
I709
aI268
aa(lp2397
I724
aI322
aa(lp2398
I732
aI373
aa(lp2399
I736
aI399
aa(lp2400
I747
aI455
aa(lp2401
I754
aI496
aa(lp2402
I762
aI537
aa(lp2403
I769
aI555
aa(lp2404
I778
aI576
aa(lp2405
I784
aI594
aa(lp2406
I790
aI609
aa(lp2407
I797
aI616
aa(lp2408
I805
aI622
aa(lp2409
I810
aI623
aa(lp2410
I815
aI623
aa(lp2411
I820
aI623
aa(lp2412
I826
aI623
aa(lp2413
I838
aI622
aa(lp2414
I846
aI613
aa(lp2415
I900
aI501
aa(lp2416
I936
aI432
aa(lp2417
I969
aI356
aa(lp2418
I1009
aI268
aa(lp2419
I963
aI169
aa(lp2420
I893
aI169
aa(lp2421
I803
aI169
aa(lp2422
I732
aI169
aa(lp2423
I564
aI193
aa(lp2424
I496
aI207
aa(lp2425
I434
aI207
aa(lp2426
I368
aI207
aa(lp2427
I338
aI207
aa(lp2428
I334
aI207
aa(lp2429
I332
aI207
aa(lp2430
I332
aI206
aa(lp2431
I332
aI198
aa(lp2432
I344
aI176
aa(lp2433
I357
aI165
aa(lp2434
I392
aI145
aa(lp2435
I407
aI136
aa(lp2436
I437
aI115
aa(lp2437
I461
aI103
aa(lp2438
I491
aI91
aa(lp2439
I505
aI86
aa(lp2440
I527
aI72
aa(lp2441
I535
aI69
aa(lp2442
I537
aI69
aa(lp2443
I533
aI69
aa(lp2444
I502
aI74
aa(lp2445
I458
aI106
aa(lp2446
I409
aI134
aa(lp2447
I347
aI163
aa(lp2448
I283
aI189
aa(lp2449
I231
aI215
aa(lp2450
I170
aI241
aa(lp2451
I109
aI263
aa(lp2452
I88
aI276
aa(lp2453
I73
aI282
aa(lp2454
I72
aI283
aa(lp2455
I70
aI283
aa(lp2456
I73
aI282
aa(lp2457
I104
aI263
aa(lp2458
I127
aI240
aa(lp2459
I178
aI207
aa(lp2460
I226
aI175
aa(lp2461
I280
aI142
aa(lp2462
I335
aI104
aa(lp2463
I386
aI82
aa(lp2464
I427
aI66
aa(lp2465
I481
aI43
aa(lp2466
I497
aI36
aa(lp2467
I499
aI36
aa(lp2468
I495
aI36
aa(lp2469
I459
aI47
aa(lp2470
I403
aI102
aa(lp2471
I327
aI158
aa(lp2472
I233
aI208
aa(lp2473
I174
aI267
aa(lp2474
I27
aI377
aa(lp2475
I83
aI440
aa(lp2476
I179
aI392
aa(lp2477
I284
aI348
aa(lp2478
I456
aI287
aa(lp2479
I537
aI254
aa(lp2480
I589
aI244
aa(lp2481
I649
aI224
aa(lp2482
I671
aI216
aa(lp2483
I690
aI209
aa(lp2484
I697
aI207
aa(lp2485
I693
aI207
aa(lp2486
I662
aI227
aa(lp2487
I607
aI273
aa(lp2488
I540
aI330
aa(lp2489
I469
aI386
aa(lp2490
I425
aI425
aa(lp2491
I367
aI483
aa(lp2492
I309
aI542
aa(lp2493
I255
aI595
aa(lp2494
I231
aI624
aa(lp2495
I220
aI646
aa(lp2496
I215
aI653
aa(lp2497
I215
aI658
aa(lp2498
I215
aI659
aa(lp2499
I215
aI661
aa(lp2500
I225
aI661
aa(lp2501
I261
aI661
aa(lp2502
I315
aI636
aa(lp2503
I379
aI585
aa(lp2504
I454
aI529
aa(lp2505
I522
aI475
aa(lp2506
I571
aI445
aa(lp2507
I633
aI407
aa(lp2508
I655
aI399
aa(lp2509
I670
aI390
aa(lp2510
I673
aI388
aa(lp2511
I667
aI397
aa(lp2512
I649
aI418
aa(lp2513
I578
aI513
aa(lp2514
I537
aI559
aa(lp2515
I491
aI605
aa(lp2516
I457
aI656
aa(lp2517
I431
aI703
aa(lp2518
I419
aI723
aa(lp2519
I413
aI731
aa(lp2520
I413
aI736
aa(lp2521
I413
aI738
aa(lp2522
I413
aI739
aa(lp2523
I416
aI739
aa(lp2524
I448
aI739
aa(lp2525
I505
aI739
aa(lp2526
I559
aI714
aa(lp2527
I628
aI689
aa(lp2528
I690
aI662
aa(lp2529
I733
aI649
aa(lp2530
I783
aI632
aa(lp2531
I823
aI624
aa(lp2532
I847
aI620
aa(lp2533
I892
aI617
aa(lp2534
I895
aI617
aa(lp2535
I903
aI617
aa(lp2536
I904
aI617
aa(lp2537
I900
aI617
aa(lp2538
I878
aI617
aa(lp2539
I840
aI624
aa(lp2540
I799
aI634
aa(lp2541
I756
aI638
aa(lp2542
I696
aI641
aa(lp2543
I647
aI645
aa(lp2544
I597
aI645
aa(lp2545
I484
aI645
aa(lp2546
I441
aI645
aa(lp2547
I414
aI645
aa(lp2548
I369
aI645
aa(lp2549
I347
aI645
aa(lp2550
I333
aI645
aa(lp2551
I327
aI645
aa(lp2552
I326
aI645
aa(lp2553
I325
aI645
aa(lp2554
I340
aI644
aa(lp2555
I368
aI641
aa(lp2556
I402
aI641
aa(lp2557
I453
aI641
aa(lp2558
I505
aI641
aa(lp2559
I555
aI641
aa(lp2560
I609
aI641
aa(lp2561
I660
aI641
aa(lp2562
I699
aI641
aa(lp2563
I754
aI641
aa(lp2564
I764
aI644
aa(lp2565
I765
aI645
aa(lp2566
I765
aI647
aa(lp2567
I765
aI648
aa(lp2568
I753
aI650
aa(lp2569
I715
aI653
aa(lp2570
I647
aI661
aa(lp2571
I578
aI666
aa(lp2572
I487
aI671
aa(lp2573
I403
aI681
aa(lp2574
I323
aI691
aa(lp2575
I233
aI691
aa(lp2576
I164
aI696
aa(lp2577
I101
aI696
aa(lp2578
I44
aI696
aa(lp2579
I3
aI696
aa(lp2580
I1
aI696
aa(lp2581
I45
aI696
aa(lp2582
I99
aI696
aa(lp2583
I168
aI696
aa(lp2584
I237
aI696
aa(lp2585
I303
aI696
aa(lp2586
I369
aI696
aa(lp2587
I430
aI696
aa(lp2588
I482
aI713
aa(lp2589
I524
aI730
aa(lp2590
I565
aI750
aa(lp2591
I589
aI762
aa(lp2592
I610
aI780
aa(lp2593
I622
aI785
aa(lp2594
I627
aI789
aa(lp2595
I627
aI790
aa(lp2596
I627
aI791
aa(lp2597
I627
aI794
aa(lp2598
I613
aI798
aa(lp2599
I580
aI809
aa(lp2600
I528
aI817
aa(lp2601
I477
aI829
aa(lp2602
I419
aI845
aa(lp2603
I371
aI861
aa(lp2604
I344
aI869
aa(lp2605
I324
aI876
aa(lp2606
I310
aI881
aa(lp2607
I306
aI883
aa(lp2608
I305
aI883
aa(lp2609
I304
aI884
aa(lp2610
I318
aI884
aa(lp2611
I355
aI884
aa(lp2612
I420
aI859
aa(lp2613
I475
aI824
aa(lp2614
I634
aI740
aa(lp2615
I694
aI681
aa(lp2616
I761
aI608
aa(lp2617
I821
aI542
aa(lp2618
I864
aI457
aa(lp2619
I900
aI374
aa(lp2620
I916
aI297
aa(lp2621
I926
aI217
aa(lp2622
I926
aI81
aa(lp2623
I926
aI45
aa(lp2624
I926
aI24
aa(lp2625
I923
aI15
aa(lp2626
I892
aI3
aa(lp2627
I863
aI0
aa(lp2628
I828
aI0
aa(lp2629
I800
aI0
aa(lp2630
I760
aI0
aa(lp2631
I693
aI0
aa(lp2632
I672
aI3
aa(lp2633
I651
aI12
aa(lp2634
I634
aI21
aa(lp2635
I617
aI29
aa(lp2636
I604
aI37
aa(lp2637
I597
aI44
aa(lp2638
I591
aI57
aa(lp2639
I591
aI70
aa(lp2640
I591
aI84
aa(lp2641
I591
aI99
aa(lp2642
I591
aI119
aa(lp2643
I591
aI135
aa(lp2644
I621
aI156
aa(lp2645
I635
aI165
aa(lp2646
I676
aI185
aa(lp2647
I727
aI200
aa(lp2648
I777
aI215
aa(lp2649
I861
aI242
aa(lp2650
I898
aI257
aa(lp2651
I919
aI264
aa(lp2652
I938
aI267
aa(lp2653
I942
aI269
aa(lp2654
I942
aI271
aa(lp2655
I936
aI271
aa(lp2656
I895
aI271
aa(lp2657
I715
aI271
aa(lp2658
I623
aI271
aa(lp2659
I510
aI271
aa(lp2660
I400
aI271
aa(lp2661
I294
aI271
aa(lp2662
I181
aI259
aa(lp2663
I96
aI254
aa(lp2664
I14
aI243
aa(lp2665
I1
aI208
aa(lp2666
I69
aI208
aa(lp2667
I158
aI226
aa(lp2668
I241
aI271
aa(lp2669
I327
aI311
aa(lp2670
I496
aI409
aa(lp2671
I568
aI450
aa(lp2672
I640
aI506
aa(lp2673
I680
aI536
aa(lp2674
I728
aI570
aa(lp2675
I747
aI598
aa(lp2676
I771
aI626
aa(lp2677
I778
aI646
aa(lp2678
I784
aI667
aa(lp2679
I784
aI681
aa(lp2680
I784
aI695
aa(lp2681
I784
aI700
aa(lp2682
I780
aI710
aa(lp2683
I766
aI717
aa(lp2684
I661
aI722
aa(lp2685
I578
aI722
aa(lp2686
I478
aI722
aa(lp2687
I364
aI722
aa(lp2688
I246
aI688
aa(lp2689
I132
aI631
aa(lp2690
I47
aI586
aa(lp2691
I42
aI483
aa(lp2692
I121
aI515
aa(lp2693
I214
aI549
aa(lp2694
I294
aI594
aa(lp2695
I385
aI630
aa(lp2696
I467
aI655
aa(lp2697
I549
aI681
aa(lp2698
I626
aI696
aa(lp2699
I686
aI707
aa(lp2700
I713
aI711
aa(lp2701
I733
aI711
aa(lp2702
I742
aI711
aa(lp2703
I749
aI711
aa(lp2704
I752
aI711
aa(lp2705
I755
aI702
aa(lp2706
I755
aI671
aa(lp2707
I755
aI635
aa(lp2708
I755
aI603
aa(lp2709
I755
aI585
aa(lp2710
I731
aI543
aa(lp2711
I708
aI497
aa(lp2712
I680
aI463
aa(lp2713
I649
aI421
aa(lp2714
I620
aI371
aa(lp2715
I591
aI326
aa(lp2716
I565
aI297
aa(lp2717
I542
aI282
aa(lp2718
I515
aI259
aa(lp2719
I498
aI248
aa(lp2720
I485
aI246
aa(lp2721
I478
aI244
aa(lp2722
I474
aI244
aa(lp2723
I468
aI244
aa(lp2724
I464
aI244
aa(lp2725
I461
aI256
aa(lp2726
I461
aI274
aa(lp2727
I461
aI327
aa(lp2728
I461
aI391
aa(lp2729
I461
aI457
aa(lp2730
I461
aI531
aa(lp2731
I492
aI588
aa(lp2732
I514
aI649
aa(lp2733
I545
aI711
aa(lp2734
I558
aI732
aa(lp2735
I579
aI753
aa(lp2736
I603
aI772
aa(lp2737
I628
aI781
aa(lp2738
I646
aI787
aa(lp2739
I674
aI787
aa(lp2740
I689
aI787
aa(lp2741
I712
aI787
aa(lp2742
I732
aI787
aa(lp2743
I751
aI765
aa(lp2744
I773
aI709
aa(lp2745
I793
aI632
aa(lp2746
I797
aI566
aa(lp2747
I797
aI469
aa(lp2748
I797
aI373
aa(lp2749
I797
aI274
aa(lp2750
I797
aI161
aa(lp2751
I781
aI85
aa(lp2752
I750
aI6
aa(lp2753
I265
aI73
aa(lp2754
I239
aI111
aa(lp2755
I210
aI156
aa(lp2756
I194
aI208
aa(lp2757
I182
aI264
aa(lp2758
I179
aI307
aa(lp2759
I179
aI357
aa(lp2760
I179
aI398
aa(lp2761
I179
aI431
aa(lp2762
I179
aI463
aa(lp2763
I179
aI483
aa(lp2764
I182
aI501
aa(lp2765
I210
aI520
aa(lp2766
I224
aI529
aa(lp2767
I263
aI532
aa(lp2768
I280
aI532
aa(lp2769
I312
aI532
aa(lp2770
I347
aI532
aa(lp2771
I377
aI532
aa(lp2772
I407
aI532
aa(lp2773
I427
aI520
aa(lp2774
I450
aI491
aa(lp2775
I470
aI452
aa(lp2776
I488
aI423
aa(lp2777
I507
aI368
aa(lp2778
I514
aI319
aa(lp2779
I514
aI281
aa(lp2780
I514
aI253
aa(lp2781
I514
aI226
aa(lp2782
I514
aI200
aa(lp2783
I514
aI189
aa(lp2784
I514
aI185
aa(lp2785
I502
aI181
aa(lp2786
I479
aI181
aa(lp2787
I462
aI181
aa(lp2788
I448
aI181
aa(lp2789
I429
aI187
aa(lp2790
I416
aI198
aa(lp2791
I403
aI213
aa(lp2792
I382
aI242
aa(lp2793
I370
aI263
aa(lp2794
I352
aI289
aa(lp2795
I338
aI316
aa(lp2796
I329
aI343
aa(lp2797
I320
aI363
aa(lp2798
I317
aI395
aa(lp2799
I317
aI403
aa(lp2800
I317
aI427
aa(lp2801
I317
aI434
aa(lp2802
I317
aI450
aa(lp2803
I317
aI457
aa(lp2804
I317
aI462
aa(lp2805
I317
aI464
aa(lp2806
I317
aI468
aa(lp2807
I317
aI471
aa(lp2808
I321
aI473
aa(lp2809
I326
aI474
aa(lp2810
I334
aI474
aa(lp2811
I340
aI474
aa(lp2812
I349
aI474
aa(lp2813
I354
aI474
aa(lp2814
I356
aI474
aa(lp2815
I359
aI474
aa(lp2816
I359
aI468
aa(lp2817
I359
aI447
aa(lp2818
I359
aI424
aa(lp2819
I297
aI378
aa(lp2820
I257
aI367
aa(lp2821
I217
aI357
aa(lp2822
I178
aI357
aa(lp2823
I140
aI353
aa(lp2824
I99
aI350
aa(lp2825
I75
aI350
aa(lp2826
I46
aI350
aa(lp2827
I28
aI350
aa(lp2828
I14
aI350
aa(lp2829
I8
aI350
aa(lp2830
I13
aI473
aa(lp2831
I52
aI505
aa(lp2832
I92
aI541
aa(lp2833
I141
aI574
aa(lp2834
I181
aI602
aa(lp2835
I230
aI627
aa(lp2836
I283
aI643
aa(lp2837
I331
aI667
aa(lp2838
I383
aI687
aa(lp2839
I423
aI703
aa(lp2840
I475
aI727
aa(lp2841
I523
aI747
aa(lp2842
I570
aI759
aa(lp2843
I651
aI770
aa(lp2844
I666
aI774
aa(lp2845
I682
aI774
aa(lp2846
I689
aI774
aa(lp2847
I694
aI774
aa(lp2848
I697
aI774
aa(lp2849
I698
aI774
aa(lp2850
I700
aI774
aa(lp2851
I700
aI732
aa(lp2852
I685
aI701
aa(lp2853
I660
aI673
aa(lp2854
I633
aI646
aa(lp2855
I591
aI612
aa(lp2856
I570
aI601
aa(lp2857
I533
aI591
aa(lp2858
I513
aI591
aa(lp2859
I488
aI591
aa(lp2860
I474
aI591
aa(lp2861
I462
aI591
aa(lp2862
I457
aI591
aa(lp2863
I452
aI591
aa(lp2864
I448
aI591
aa(lp2865
I443
aI601
aa(lp2866
I443
aI611
aa(lp2867
I443
aI622
aa(lp2868
I443
aI635
aa(lp2869
I443
aI644
aa(lp2870
I443
aI653
aa(lp2871
I443
aI660
aa(lp2872
I443
aI667
aa(lp2873
I451
aI671
aa(lp2874
I459
aI676
aa(lp2875
I469
aI676
aa(lp2876
I477
aI676
aa(lp2877
I487
aI676
aa(lp2878
I495
aI676
aa(lp2879
I505
aI676
aa(lp2880
I514
aI676
aa(lp2881
I518
aI676
aa(lp2882
I524
aI676
aa(lp2883
I529
aI676
aa(lp2884
I535
aI672
aa(lp2885
I537
aI666
aa(lp2886
I537
aI664
aa(lp2887
I537
aI660
aa(lp2888
I537
aI657
aa(lp2889
I537
aI654
aa(lp2890
I537
aI651
aa(lp2891
I537
aI647
aa(lp2892
I537
aI645
aa(lp2893
I537
aI641
aa(lp2894
I537
aI638
aa(lp2895
I537
aI635
aa(lp2896
I537
aI631
aa(lp2897
I537
aI627
aa(lp2898
I537
aI623
aa(lp2899
I533
aI616
aa(lp2900
I533
aI611
aa(lp2901
I533
aI608
aa(lp2902
I533
aI606
aa(lp2903
I533
aI603
aa(lp2904
I533
aI599
aa(lp2905
I533
aI597
aa(lp2906
I533
aI593
aa(lp2907
I533
aI589
aa(lp2908
I533
aI584
aa(lp2909
I533
aI580
aa(lp2910
I533
aI574
aa(lp2911
I533
aI570
aa(lp2912
I533
aI567
aa(lp2913
I533
aI564
aa(lp2914
I533
aI562
aa(lp2915
I533
aI559
aa(lp2916
I533
aI558
aa(lp2917
I535
aI555
aa(lp2918
I538
aI554
aa(lp2919
I542
aI553
aa(lp2920
I545
aI552
aa(lp2921
I550
aI549
aa(lp2922
I555
aI548
aa(lp2923
I560
aI548
aa(lp2924
I567
aI548
aa(lp2925
I572
aI548
aa(lp2926
I577
aI548
aa(lp2927
I583
aI548
aa(lp2928
I589
aI548
aa(lp2929
I597
aI548
aa(lp2930
I605
aI548
aa(lp2931
I612
aI548
aa(lp2932
I620
aI548
aa(lp2933
I627
aI548
aa(lp2934
I632
aI548
aa(lp2935
I640
aI548
aa(lp2936
I647
aI548
aa(lp2937
I656
aI548
aa(lp2938
I663
aI548
aa(lp2939
I669
aI548
aa(lp2940
I678
aI548
aa(lp2941
I684
aI548
aa(lp2942
I686
aI548
aa(lp2943
I690
aI548
aa(lp2944
I692
aI548
aa(lp2945
I694
aI548
aa(lp2946
I676
aI548
aa(lp2947
I657
aI548
aa(lp2948
I629
aI548
aa(lp2949
I604
aI548
aa(lp2950
I569
aI548
aa(lp2951
I537
aI548
aa(lp2952
I504
aI548
aa(lp2953
I467
aI548
aa(lp2954
I426
aI548
aa(lp2955
I387
aI548
aa(lp2956
I351
aI551
aa(lp2957
I309
aI551
aa(lp2958
I273
aI551
aa(lp2959
I236
aI551
aa(lp2960
I197
aI551
aa(lp2961
I173
aI551
aa(lp2962
I137
aI551
aa(lp2963
I117
aI551
aa(lp2964
I96
aI551
aa(lp2965
I79
aI551
aa(lp2966
I65
aI551
aa(lp2967
I59
aI551
aa(lp2968
I55
aI551
aa(lp2969
I51
aI551
aa(lp2970
I49
aI551
aa(lp2971
I48
aI551
aa(lp2972
I47
aI551
aa(lp2973
I48
aI551
aa(lp2974
I56
aI551
aa(lp2975
I78
aI551
aa(lp2976
I116
aI551
aa(lp2977
I131
aI551
aa(lp2978
I163
aI551
aa(lp2979
I184
aI551
aa(lp2980
I216
aI551
aa(lp2981
I243
aI551
aa(lp2982
I271
aI551
aa(lp2983
I305
aI551
aa(lp2984
I328
aI551
aa(lp2985
I388
aI551
aa(lp2986
I423
aI551
aa(lp2987
I452
aI551
aa(lp2988
I476
aI551
aa(lp2989
I506
aI551
aa(lp2990
I531
aI551
aa(lp2991
I555
aI551
aa(lp2992
I579
aI551
aa(lp2993
I596
aI551
aa(lp2994
I624
aI551
aa(lp2995
I638
aI551
aa(lp2996
I654
aI551
aa(lp2997
I689
aI551
aa(lp2998
I702
aI551
aa(lp2999
I716
aI551
aa(lp3000
I730
aI549
aa(lp3001
I740
aI549
aa(lp3002
I751
aI549
aa(lp3003
I759
aI549
aa(lp3004
I766
aI549
aa(lp3005
I773
aI547
aa(lp3006
I778
aI547
aa(lp3007
I783
aI547
aa(lp3008
I785
aI547
aa(lp3009
I788
aI547
aa(lp3010
I789
aI547
aa(lp3011
I786
aI547
aa(lp3012
I776
aI547
aa(lp3013
I736
aI547
aa(lp3014
I706
aI547
aa(lp3015
I687
aI547
aa(lp3016
I655
aI547
aa(lp3017
I636
aI547
aa(lp3018
I603
aI547
aa(lp3019
I584
aI547
aa(lp3020
I551
aI547
aa(lp3021
I535
aI547
aa(lp3022
I504
aI547
aa(lp3023
I485
aI547
aa(lp3024
I455
aI547
aa(lp3025
I442
aI547
aa(lp3026
I423
aI547
aa(lp3027
I405
aI547
aa(lp3028
I387
aI547
aa(lp3029
I369
aI547
aa(lp3030
I354
aI547
aa(lp3031
I342
aI547
aa(lp3032
I328
aI545
aa(lp3033
I321
aI545
aa(lp3034
I312
aI545
aa(lp3035
I306
aI545
aa(lp3036
I297
aI545
aa(lp3037
I292
aI545
aa(lp3038
I288
aI545
aa(lp3039
I284
aI545
aa(lp3040
I280
aI545
aa(lp3041
I276
aI545
aa(lp3042
I273
aI545
aa(lp3043
I269
aI545
aa(lp3044
I267
aI545
aa(lp3045
I265
aI545
aa(lp3046
I263
aI545
aa(lp3047
I262
aI545
aa(lp3048
I260
aI545
aa(lp3049
I259
aI545
aa(lp3050
I258
aI545
aa(lp3051
I257
aI545
aa(lp3052
I258
aI543
aa(lp3053
I262
aI543
aa(lp3054
I265
aI543
aa(lp3055
I271
aI543
aa(lp3056
I274
aI543
aa(lp3057
I279
aI543
aa(lp3058
I283
aI542
aa(lp3059
I288
aI541
aa(lp3060
I294
aI541
aa(lp3061
I299
aI540
aa(lp3062
I306
aI540
aa(lp3063
I313
aI540
aa(lp3064
I320
aI538
aa(lp3065
I327
aI538
aa(lp3066
I334
aI538
aa(lp3067
I340
aI538
aa(lp3068
I347
aI538
aa(lp3069
I354
aI538
aa(lp3070
I361
aI538
aa(lp3071
I368
aI537
aa(lp3072
I377
aI537
aa(lp3073
I383
aI537
aa(lp3074
I392
aI537
aa(lp3075
I400
aI537
aa(lp3076
I408
aI537
aa(lp3077
I417
aI535
aa(lp3078
I425
aI535
aa(lp3079
I438
aI534
aa(lp3080
I443
aI534
aa(lp3081
I452
aI532
aa(lp3082
I460
aI532
aa(lp3083
I470
aI532
aa(lp3084
I478
aI532
aa(lp3085
I488
aI529
aa(lp3086
I496
aI529
aa(lp3087
I504
aI527
aa(lp3088
I512
aI526
aa(lp3089
I522
aI526
aa(lp3090
I530
aI524
aa(lp3091
I538
aI524
aa(lp3092
I546
aI524
aa(lp3093
I555
aI524
aa(lp3094
I562
aI524
aa(lp3095
I570
aI522
aa(lp3096
I577
aI522
aa(lp3097
I583
aI521
aa(lp3098
I590
aI521
aa(lp3099
I598
aI519
aa(lp3100
I602
aI519
aa(lp3101
I610
aI519
aa(lp3102
I614
aI518
aa(lp3103
I620
aI516
aa(lp3104
I625
aI516
aa(lp3105
I631
aI516
aa(lp3106
I634
aI516
aa(lp3107
I638
aI516
aa(lp3108
I642
aI516
aa(lp3109
I645
aI516
aa(lp3110
I647
aI516
aa(lp3111
I650
aI515
aa(lp3112
I651
aI515
aa(lp3113
I652
aI515
aa(lp3114
I653
aI514
aa(lp3115
I653
aI513
aa(lp3116
I647
aI513
aa(lp3117
I643
aI513
aa(lp3118
I637
aI513
aa(lp3119
I631
aI511
aa(lp3120
I627
aI511
aa(lp3121
I621
aI510
aa(lp3122
I613
aI510
aa(lp3123
I609
aI510
aa(lp3124
I601
aI510
aa(lp3125
I594
aI510
aa(lp3126
I586
aI509
aa(lp3127
I578
aI507
aa(lp3128
I570
aI507
aa(lp3129
I562
aI506
aa(lp3130
I548
aI504
aa(lp3131
I540
aI504
aa(lp3132
I531
aI501
aa(lp3133
I523
aI501
aa(lp3134
I514
aI498
aa(lp3135
I504
aI498
aa(lp3136
I496
aI498
aa(lp3137
I488
aI497
aa(lp3138
I480
aI495
aa(lp3139
I470
aI493
aa(lp3140
I460
aI490
aa(lp3141
I440
aI488
aa(lp3142
I430
aI487
aa(lp3143
I420
aI487
aa(lp3144
I410
aI485
aa(lp3145
I401
aI485
aa(lp3146
I389
aI483
aa(lp3147
I378
aI483
aa(lp3148
I368
aI481
aa(lp3149
I357
aI481
aa(lp3150
I345
aI481
aa(lp3151
I336
aI481
aa(lp3152
I325
aI480
aa(lp3153
I316
aI478
aa(lp3154
I305
aI478
aa(lp3155
I296
aI476
aa(lp3156
I287
aI476
aa(lp3157
I279
aI476
aa(lp3158
I273
aI474
aa(lp3159
I263
aI474
aa(lp3160
I254
aI473
aa(lp3161
I250
aI473
aa(lp3162
I246
aI473
aa(lp3163
I243
aI473
aa(lp3164
I240
aI472
aa(lp3165
I239
aI472
aa(lp3166
I238
aI472
aa(lp3167
I237
aI472
aa(lp3168
I235
aI472
aa(lp3169
I235
aI470
aa(lp3170
I235
aI469
aa(lp3171
I235
aI468
aa(lp3172
I235
aI467
aa(lp3173
I237
aI465
aa(lp3174
I243
aI464
aa(lp3175
I249
aI464
aa(lp3176
I258
aI461
aa(lp3177
I266
aI461
aa(lp3178
I280
aI461
aa(lp3179
I288
aI459
aa(lp3180
I299
aI458
aa(lp3181
I313
aI458
aa(lp3182
I324
aI456
aa(lp3183
I339
aI456
aa(lp3184
I350
aI454
aa(lp3185
I369
aI452
aa(lp3186
I381
aI450
aa(lp3187
I397
aI446
aa(lp3188
I413
aI444
aa(lp3189
I430
aI442
aa(lp3190
I447
aI440
aa(lp3191
I464
aI436
aa(lp3192
I477
aI431
aa(lp3193
I495
aI429
aa(lp3194
I508
aI427
aa(lp3195
I531
aI422
aa(lp3196
I543
aI420
aa(lp3197
I566
aI413
aa(lp3198
I577
aI411
aa(lp3199
I596
aI406
aa(lp3200
I626
aI394
aa(lp3201
I639
aI392
aa(lp3202
I653
aI388
aa(lp3203
I666
aI383
aa(lp3204
I677
aI381
aa(lp3205
I689
aI377
aa(lp3206
I700
aI375
aa(lp3207
I710
aI371
aa(lp3208
I720
aI367
aa(lp3209
I730
aI365
aa(lp3210
I737
aI363
aa(lp3211
I744
aI359
aa(lp3212
I751
aI356
aa(lp3213
I758
aI353
aa(lp3214
I763
aI349
aa(lp3215
I768
aI346
aa(lp3216
I770
aI345
aa(lp3217
I773
aI344
aa(lp3218
I774
aI342
aa(lp3219
I774
aI340
aa(lp3220
I774
aI338
aa(lp3221
I774
aI336
aa(lp3222
I769
aI333
aa(lp3223
I758
aI333
aa(lp3224
I748
aI332
aa(lp3225
I732
aI332
aa(lp3226
I719
aI332
aa(lp3227
I700
aI327
aa(lp3228
I638
aI327
aa(lp3229
I611
aI327
aa(lp3230
I597
aI327
aa(lp3231
I567
aI325
aa(lp3232
I550
aI325
aa(lp3233
I519
aI320
aa(lp3234
I507
aI320
aa(lp3235
I484
aI320
aa(lp3236
I467
aI320
aa(lp3237
I449
aI320
aa(lp3238
I427
aI320
aa(lp3239
I412
aI317
aa(lp3240
I394
aI317
aa(lp3241
I379
aI317
aa(lp3242
I365
aI317
aa(lp3243
I351
aI317
aa(lp3244
I337
aI317
aa(lp3245
I326
aI315
aa(lp3246
I315
aI315
aa(lp3247
I305
aI313
aa(lp3248
I299
aI311
aa(lp3249
I290
aI309
aa(lp3250
I285
aI308
aa(lp3251
I280
aI306
aa(lp3252
I276
aI306
aa(lp3253
I272
aI305
aa(lp3254
I268
aI302
aa(lp3255
I265
aI299
aa(lp3256
I264
aI299
aa(lp3257
I261
aI297
aa(lp3258
I259
aI294
aa(lp3259
I256
aI293
aa(lp3260
I255
aI290
aa(lp3261
I254
aI289
aa(lp3262
I252
aI284
aa(lp3263
I252
aI281
aa(lp3264
I252
aI278
aa(lp3265
I252
aI274
aa(lp3266
I252
aI270
aa(lp3267
I252
aI268
aa(lp3268
I252
aI264
aa(lp3269
I252
aI261
aa(lp3270
I252
aI258
aa(lp3271
I252
aI254
aa(lp3272
I252
aI251
aa(lp3273
I252
aI249
aa(lp3274
I252
aI246
aa(lp3275
I255
aI245
aa(lp3276
I260
aI244
aa(lp3277
I265
aI242
aa(lp3278
I270
aI242
aa(lp3279
I283
aI242
aa(lp3280
I291
aI242
aa(lp3281
I298
aI241
aa(lp3282
I307
aI241
aa(lp3283
I315
aI240
aa(lp3284
I325
aI238
aa(lp3285
I334
aI236
aa(lp3286
I347
aI235
aa(lp3287
I355
aI233
aa(lp3288
I368
aI232
aa(lp3289
I378
aI230
aa(lp3290
I392
aI228
aa(lp3291
I403
aI226
aa(lp3292
I414
aI221
aa(lp3293
I433
aI221
aa(lp3294
I441
aI217
aa(lp3295
I461
aI211
aa(lp3296
I469
aI209
aa(lp3297
I482
aI203
aa(lp3298
I494
aI197
aa(lp3299
I506
aI193
aa(lp3300
I518
aI188
aa(lp3301
I531
aI186
aa(lp3302
I543
aI182
aa(lp3303
I555
aI178
aa(lp3304
I567
aI174
aa(lp3305
I585
aI168
aa(lp3306
I592
aI167
aa(lp3307
I600
aI163
aa(lp3308
I607
aI161
aa(lp3309
I613
aI158
aa(lp3310
I618
aI154
aa(lp3311
I631
aI150
aa(lp3312
I636
aI148
aa(lp3313
I638
aI147
aa(lp3314
I642
aI145
aa(lp3315
I646
aI144
aa(lp3316
I647
aI144
aa(lp3317
I651
aI143
aa(lp3318
I652
aI142
aa(lp3319
I654
aI142
aa(lp3320
I655
aI140
aa(lp3321
I655
aI139
aa(lp3322
I655
aI138
aa(lp3323
I655
aI137
aa(lp3324
I655
aI135
aa(lp3325
I655
aI133
aa(lp3326
I654
aI130
aa(lp3327
I650
aI130
aa(lp3328
I643
aI129
aa(lp3329
I635
aI126
aa(lp3330
I627
aI124
aa(lp3331
I617
aI121
aa(lp3332
I607
aI118
aa(lp3333
I597
aI118
aa(lp3334
I585
aI118
aa(lp3335
I572
aI114
aa(lp3336
I561
aI112
aa(lp3337
I544
aI110
aa(lp3338
I535
aI110
aa(lp3339
I525
aI108
aa(lp3340
I509
aI106
aa(lp3341
I503
aI106
aa(lp3342
I482
aI105
aa(lp3343
I476
aI105
aa(lp3344
I459
aI105
aa(lp3345
I449
aI105
aa(lp3346
I437
aI105
aa(lp3347
I428
aI105
aa(lp3348
I406
aI105
aa(lp3349
I395
aI105
aa(lp3350
I386
aI105
aa(lp3351
I380
aI105
aa(lp3352
I370
aI105
aa(lp3353
I365
aI105
aa(lp3354
I360
aI105
aa(lp3355
I353
aI106
aa(lp3356
I348
aI109
aa(lp3357
I344
aI112
aa(lp3358
I340
aI116
aa(lp3359
I333
aI121
aa(lp3360
I332
aI124
aa(lp3361
I331
aI128
aa(lp3362
I331
aI131
aa(lp3363
I331
aI135
aa(lp3364
I331
aI142
aa(lp3365
I331
aI145
aa(lp3366
I331
aI152
aa(lp3367
I331
aI164
aa(lp3368
I331
aI172
aa(lp3369
I335
aI178
aa(lp3370
I337
aI182
aa(lp3371
I342
aI186
aa(lp3372
I346
aI189
aa(lp3373
I351
aI198
aa(lp3374
I356
aI205
aa(lp3375
I362
aI211
aa(lp3376
I368
aI217
aa(lp3377
I373
aI222
aa(lp3378
I381
aI232
aa(lp3379
I387
aI240
aa(lp3380
I394
aI245
aa(lp3381
I402
aI253
aa(lp3382
I409
aI258
aa(lp3383
I417
aI265
aa(lp3384
I426
aI272
aa(lp3385
I434
aI278
aa(lp3386
I443
aI286
aa(lp3387
I453
aI295
aa(lp3388
I462
aI302
aa(lp3389
I471
aI311
aa(lp3390
I480
aI321
aa(lp3391
I488
aI328
aa(lp3392
I496
aI338
aa(lp3393
I505
aI348
aa(lp3394
I511
aI353
aa(lp3395
I519
aI367
aa(lp3396
I528
aI388
aa(lp3397
I534
aI399
aa(lp3398
I538
aI409
aa(lp3399
I542
aI419
aa(lp3400
I549
aI437
aa(lp3401
I555
aI463
aa(lp3402
I555
aI475
aa(lp3403
I555
aI492
aa(lp3404
I555
aI502
aa(lp3405
I555
aI513
aa(lp3406
I555
aI524
aa(lp3407
I555
aI535
aa(lp3408
I555
aI552
aa(lp3409
I555
aI577
aa(lp3410
I555
aI589
aa(lp3411
I555
aI598
aa(lp3412
I555
aI610
aa(lp3413
I555
aI620
aa(lp3414
I555
aI638
aa(lp3415
I553
aI652
aa(lp3416
I551
aI666
aa(lp3417
I549
aI678
aa(lp3418
I545
aI689
aa(lp3419
I543
aI699
aa(lp3420
I539
aI711
aa(lp3421
I535
aI722
aa(lp3422
I531
aI744
aa(lp3423
I527
aI758
aa(lp3424
I523
aI772
aa(lp3425
I521
aI784
aa(lp3426
I514
aI805
aa(lp3427
I512
aI811
aa(lp3428
I511
aI813
aa(lp3429
I504
aI828
aa(lp3430
I476
aI866
aa(lp3431
I454
aI868
aa(lp3432
I421
aI868
aa(lp3433
I416
aI868
aa(lp3434
I382
aI868
aa(lp3435
I372
aI868
aa(lp3436
I361
aI868
aa(lp3437
I349
aI868
aa(lp3438
I340
aI868
aa(lp3439
I334
aI868
aa(lp3440
I324
aI868
aa(lp3441
I314
aI868
aa(lp3442
I303
aI868
aa(lp3443
I292
aI861
aa(lp3444
I285
aI843
aa(lp3445
I278
aI832
aa(lp3446
I271
aI818
aa(lp3447
I265
aI807
aa(lp3448
I263
aI794
aa(lp3449
I260
aI765
aa(lp3450
I258
aI751
aa(lp3451
I258
aI734
aa(lp3452
I258
aI707
aa(lp3453
I258
aI696
aa(lp3454
I258
aI685
aa(lp3455
I258
aI663
aa(lp3456
I258
aI649
aa(lp3457
I258
aI632
aa(lp3458
I258
aI614
aa(lp3459
I258
aI603
aa(lp3460
I265
aI590
aa(lp3461
I271
aI577
aa(lp3462
I285
aI549
aa(lp3463
I290
aI540
aa(lp3464
I303
aI512
aa(lp3465
I308
aI503
aa(lp3466
I317
aI490
aa(lp3467
I324
aI479
aa(lp3468
I334
aI461
aa(lp3469
I344
aI443
aa(lp3470
I350
aI429
aa(lp3471
I362
aI406
aa(lp3472
I367
aI399
aa(lp3473
I387
aI374
aa(lp3474
I397
aI360
aa(lp3475
I408
aI346
aa(lp3476
I415
aI334
aa(lp3477
I424
aI321
aa(lp3478
I431
aI310
aa(lp3479
I439
aI293
aa(lp3480
I444
aI286
aa(lp3481
I448
aI278
aa(lp3482
I455
aI273
aa(lp3483
I459
aI265
aa(lp3484
I469
aI250
aa(lp3485
I474
aI241
aa(lp3486
I476
aI234
aa(lp3487
I477
aI229
aa(lp3488
I481
aI221
aa(lp3489
I482
aI214
aa(lp3490
I482
aI211
aa(lp3491
I484
aI209
aa(lp3492
I485
aI204
aa(lp3493
I485
aI201
aa(lp3494
I486
aI201
aa(lp3495
I487
aI201
aa(lp3496
I489
aI206
aa(lp3497
I489
aI218
aa(lp3498
I492
aI229
aa(lp3499
I495
aI245
aa(lp3500
I499
aI265
aa(lp3501
I504
aI279
aa(lp3502
I511
aI310
aa(lp3503
I513
aI325
aa(lp3504
I521
aI356
aa(lp3505
I524
aI368
aa(lp3506
I531
aI391
aa(lp3507
I536
aI422
aa(lp3508
I542
aI451
aa(lp3509
I547
aI475
aa(lp3510
I550
aI494
aa(lp3511
I555
aI530
aa(lp3512
I555
aI554
aa(lp3513
I558
aI588
aa(lp3514
I558
aI608
aa(lp3515
I558
aI625
aa(lp3516
I558
aI641
aa(lp3517
I558
aI666
aa(lp3518
I558
aI685
aa(lp3519
I558
aI704
aa(lp3520
I558
aI722
aa(lp3521
I558
aI735
aa(lp3522
I558
aI747
aa(lp3523
I558
aI763
aa(lp3524
I558
aI765
aa(lp3525
I558
aI789
aa(lp3526
I558
aI796
aa(lp3527
I558
aI804
aa(lp3528
I558
aI812
aa(lp3529
I558
aI815
aa(lp3530
I558
aI819
aa(lp3531
I558
aI820
aa(lp3532
I558
aI826
aa(lp3533
I558
aI828
aa(lp3534
I558
aI829
aa(lp3535
I558
aI830
aa(lp3536
I558
aI831
aa(lp3537
I558
aI823
aa(lp3538
I558
aI803
aa(lp3539
I563
aI790
aa(lp3540
I573
aI765
aa(lp3541
I575
aI756
aa(lp3542
I582
aI743
aa(lp3543
I589
aI720
aa(lp3544
I601
aI690
aa(lp3545
I604
aI670
aa(lp3546
I611
aI644
aa(lp3547
I619
aI618
aa(lp3548
I630
aI582
aa(lp3549
I636
aI554
aa(lp3550
I641
aI532
aa(lp3551
I644
aI509
aa(lp3552
I653
aI493
aa(lp3553
I658
aI457
aa(lp3554
I661
aI443
aa(lp3555
I661
aI415
aa(lp3556
I664
aI407
aa(lp3557
I666
aI386
aa(lp3558
I669
aI347
aa(lp3559
I674
aI332
aa(lp3560
I674
aI317
aa(lp3561
I674
aI297
aa(lp3562
I674
aI285
aa(lp3563
I675
aI281
aa(lp3564
I675
aI279
aa(lp3565
I675
aI274
aa(lp3566
I675
aI272
aa(lp3567
I675
aI270
aa(lp3568
I675
aI269
aa(lp3569
I675
aI267
aa(lp3570
I676
aI267
aa(lp3571
I678
aI267
aa(lp3572
I679
aI267
aa(lp3573
I684
aI267
aa(lp3574
I686
aI267
aa(lp3575
I688
aI267
aa(lp3576
I692
aI283
aa(lp3577
I692
aI292
aa(lp3578
I694
aI319
aa(lp3579
I696
aI340
aa(lp3580
I699
aI357
aa(lp3581
I704
aI379
aa(lp3582
I709
aI416
aa(lp3583
I712
aI453
aa(lp3584
I712
aI473
aa(lp3585
I720
aI511
aa(lp3586
I723
aI547
aa(lp3587
I727
aI583
aa(lp3588
I730
aI617
aa(lp3589
I736
aI636
aa(lp3590
I745
aI672
aa(lp3591
I748
aI706
aa(lp3592
I754
aI728
aa(lp3593
I760
aI749
aa(lp3594
I763
aI764
aa(lp3595
I769
aI780
aa(lp3596
I777
aI799
aa(lp3597
I783
aI814
aa(lp3598
I790
aI829
aa(lp3599
I796
aI848
aa(lp3600
I798
aI860
aa(lp3601
I798
aI862
aa(lp3602
I805
aI872
aa(lp3603
I805
aI873
aa(lp3604
I805
aI875
aa(lp3605
I807
aI879
aa(lp3606
I807
aI880
aa(lp3607
I808
aI882
aa(lp3608
I810
aI882
aa(lp3609
I811
aI882
aa(lp3610
I815
aI871
aa(lp3611
I819
aI850
aa(lp3612
I825
aI810
aa(lp3613
I825
aI795
aa(lp3614
I831
aI761
aa(lp3615
I840
aI725
aa(lp3616
I843
aI687
aa(lp3617
I843
aI655
aa(lp3618
I853
aI616
aa(lp3619
I853
aI574
aa(lp3620
I856
aI527
aa(lp3621
I856
aI500
aa(lp3622
I860
aI456
aa(lp3623
I860
aI412
aa(lp3624
I860
aI378
aa(lp3625
I863
aI325
aa(lp3626
I873
aI279
aa(lp3627
I873
aI252
aa(lp3628
I880
aI208
aa(lp3629
I880
aI191
aa(lp3630
I880
aI159
aa(lp3631
I883
aI127
aa(lp3632
I886
aI108
aa(lp3633
I886
aI77
aa(lp3634
I886
aI60
aa(lp3635
I886
aI32
aa(lp3636
I886
aI11
aa(lp3637
I886
aI3
aa(lp3638
I796
aI3
aa(lp3639
I775
aI17
aa(lp3640
I758
aI34
aa(lp3641
I731
aI67
aa(lp3642
I713
aI89
aa(lp3643
I687
aI124
aa(lp3644
I671
aI140
aa(lp3645
I649
aI168
aa(lp3646
I631
aI196
aa(lp3647
I612
aI224
aa(lp3648
I596
aI253
aa(lp3649
I580
aI287
aa(lp3650
I574
aI303
aa(lp3651
I559
aI337
aa(lp3652
I549
aI365
aa(lp3653
I540
aI402
aa(lp3654
I531
aI423
aa(lp3655
I522
aI445
aa(lp3656
I516
aI472
aa(lp3657
I510
aI505
aa(lp3658
I504
aI531
aa(lp3659
I495
aI552
aa(lp3660
I492
aI572
aa(lp3661
I478
aI614
aa(lp3662
I473
aI638
aa(lp3663
I467
aI663
aa(lp3664
I462
aI693
aa(lp3665
I456
aI706
aa(lp3666
I451
aI736
aa(lp3667
I446
aI754
aa(lp3668
I441
aI789
aa(lp3669
I432
aI807
aa(lp3670
I424
aI824
aa(lp3671
I424
aI826
aa(lp3672
I416
aI850
aa(lp3673
I404
aI864
aa(lp3674
I403
aI866
aa(lp3675
I393
aI876
aa(lp3676
I378
aI889
aa(lp3677
I368
aI891
aa(lp3678
I362
aI892
aa(lp3679
I358
aI894
aa(lp3680
I353
aI894
aa(lp3681
I350
aI894
aa(lp3682
I346
aI894
aa(lp3683
I338
aI894
aa(lp3684
I332
aI894
aa(lp3685
I326
aI889
aa(lp3686
I316
aI873
aa(lp3687
I309
aI864
aa(lp3688
I289
aI826
aa(lp3689
I276
aI794
aa(lp3690
I263
aI762
aa(lp3691
I241
aI706
aa(lp3692
I220
aI640
aa(lp3693
I207
aI609
aa(lp3694
I201
aI584
aa(lp3695
I192
aI559
aa(lp3696
I186
aI535
aa(lp3697
I176
aI496
aa(lp3698
I173
aI465
aa(lp3699
I167
aI450
aa(lp3700
I161
aI420
aa(lp3701
I155
aI389
aa(lp3702
I149
aI360
aa(lp3703
I146
aI324
aa(lp3704
I140
aI310
aa(lp3705
I138
aI274
aa(lp3706
I135
aI245
aa(lp3707
I129
aI222
aa(lp3708
I126
aI187
aa(lp3709
I123
aI170
aa(lp3710
I120
aI147
aa(lp3711
I117
aI130
aa(lp3712
I117
aI83
aa(lp3713
I117
aI56
aa(lp3714
I115
aI43
aa(lp3715
I115
aI31
aa(lp3716
I113
aI20
aa(lp3717
I113
aI12
aa(lp3718
I111
aI2
aa(lp3719
I76
aI1
aa(lp3720
I69
aI11
aa(lp3721
I60
aI36
aa(lp3722
I56
aI48
aa(lp3723
I49
aI69
aa(lp3724
I44
aI86
aa(lp3725
I39
aI100
aa(lp3726
I37
aI121
aa(lp3727
I34
aI164
aa(lp3728
I32
aI186
aa(lp3729
I29
aI208
aa(lp3730
I27
aI226
aa(lp3731
I27
aI256
aa(lp3732
I27
aI279
aa(lp3733
I24
aI310
aa(lp3734
I24
aI326
aa(lp3735
I24
aI349
aa(lp3736
I24
aI373
aa(lp3737
I24
aI391
aa(lp3738
I24
aI421
aa(lp3739
I24
aI437
aa(lp3740
I24
aI452
aa(lp3741
I24
aI467
aa(lp3742
I24
aI496
aa(lp3743
I24
aI511
aa(lp3744
I27
aI540
aa(lp3745
I32
aI555
aa(lp3746
I37
aI573
aa(lp3747
I39
aI585
aa(lp3748
I49
aI606
aa(lp3749
I58
aI636
aa(lp3750
I67
aI670
aa(lp3751
I67
aI672
aa(lp3752
I74
aI687
aa(lp3753
I74
aI689
aa(lp3754
I80
aI703
aa(lp3755
I84
aI715
aa(lp3756
I84
aI717
aa(lp3757
I91
aI737
aa(lp3758
I97
aI767
aa(lp3759
I97
aI770
aa(lp3760
I97
aI771
aa(lp3761
I97
aI764
aa(lp3762
I97
aI753
aa(lp3763
I97
aI744
aa(lp3764
I95
aI736
aa(lp3765
I95
aI728
aa(lp3766
I92
aI722
aa(lp3767
I92
aI709
aa(lp3768
I92
aI691
aa(lp3769
I90
aI665
aa(lp3770
I90
aI641
aa(lp3771
I90
aI618
aa(lp3772
I90
aI601
aa(lp3773
I90
aI576
aa(lp3774
I90
aI563
aa(lp3775
I90
aI545
aa(lp3776
I90
aI539
aa(lp3777
I90
aI521
aa(lp3778
I90
aI508
aa(lp3779
I90
aI490
aa(lp3780
I90
aI481
aa(lp3781
I90
aI468
aa(lp3782
I90
aI451
aa(lp3783
I90
aI444
aa(lp3784
I90
aI437
aa(lp3785
I90
aI431
aa(lp3786
I90
aI422
aa(lp3787
I90
aI413
aa(lp3788
I90
aI404
aa(lp3789
I90
aI390
aa(lp3790
I90
aI380
aa(lp3791
I90
aI374
aa(lp3792
I90
aI369
aa(lp3793
I90
aI364
aa(lp3794
I90
aI363
aa(lp3795
I90
aI361
aa(lp3796
I90
aI359
aa(lp3797
I90
aI357
aa(lp3798
I91
aI354
aa(lp3799
I93
aI354
aa(lp3800
I94
aI354
aa(lp3801
I95
aI354
aa(lp3802
I96
aI354
aa(lp3803
I100
aI354
aa(lp3804
I104
aI354
aa(lp3805
I105
aI363
aa(lp3806
I107
aI374
aa(lp3807
I112
aI405
aa(lp3808
I112
aI422
aa(lp3809
I114
aI434
aa(lp3810
I117
aI450
aa(lp3811
I119
aI471
aa(lp3812
I124
aI487
aa(lp3813
I126
aI513
aa(lp3814
I128
aI528
aa(lp3815
I131
aI539
aa(lp3816
I131
aI551
aa(lp3817
I133
aI571
aa(lp3818
I135
aI584
aa(lp3819
I135
aI600
aa(lp3820
I137
aI613
aa(lp3821
I140
aI620
aa(lp3822
I140
aI629
aa(lp3823
I140
aI635
aa(lp3824
I140
aI639
aa(lp3825
I141
aI642
aa(lp3826
I142
aI646
aa(lp3827
I142
aI650
aa(lp3828
I144
aI658
aa(lp3829
I144
aI665
aa(lp3830
I145
aI671
aa(lp3831
I145
aI673
aa(lp3832
I145
aI682
aa(lp3833
I145
aI686
aa(lp3834
I145
aI687
aa(lp3835
I145
aI690
aa(lp3836
I145
aI692
aa(lp3837
I146
aI692
aa(lp3838
I147
aI692
aa(lp3839
I149
aI692
aa(lp3840
I150
aI692
aa(lp3841
I151
aI692
aa(lp3842
I151
aI690
aa(lp3843
I152
aI684
aa(lp3844
I152
aI678
aa(lp3845
I152
aI672
aa(lp3846
I152
aI667
aa(lp3847
I154
aI662
aa(lp3848
I155
aI658
aa(lp3849
I155
aI652
aa(lp3850
I156
aI645
aa(lp3851
I158
aI640
aa(lp3852
I158
aI632
aa(lp3853
I159
aI626
aa(lp3854
I160
aI619
aa(lp3855
I162
aI612
aa(lp3856
I162
aI606
aa(lp3857
I163
aI601
aa(lp3858
I164
aI594
aa(lp3859
I167
aI587
aa(lp3860
I167
aI580
aa(lp3861
I169
aI572
aa(lp3862
I170
aI564
aa(lp3863
I170
aI557
aa(lp3864
I170
aI549
aa(lp3865
I170
aI543
aa(lp3866
I170
aI536
aa(lp3867
I170
aI530
aa(lp3868
I170
aI523
aa(lp3869
I170
aI514
aa(lp3870
I170
aI505
aa(lp3871
I170
aI496
aa(lp3872
I170
aI486
aa(lp3873
I170
aI477
aa(lp3874
I170
aI463
aa(lp3875
I170
aI449
aa(lp3876
I170
aI441
aa(lp3877
I170
aI432
aa(lp3878
I170
aI426
aa(lp3879
I170
aI418
aa(lp3880
I170
aI413
aa(lp3881
I170
aI407
aa(lp3882
I170
aI401
aa(lp3883
I170
aI397
aa(lp3884
I170
aI394
aa(lp3885
I170
aI392
aa(lp3886
I170
aI389
aa(lp3887
I170
aI388
aa(lp3888
I171
aI388
aa(lp3889
I171
aI394
aa(lp3890
I171
aI402
aa(lp3891
I174
aI430
aa(lp3892
I174
aI443
aa(lp3893
I176
aI459
aa(lp3894
I178
aI475
aa(lp3895
I185
aI504
aa(lp3896
I188
aI521
aa(lp3897
I193
aI551
aa(lp3898
I198
aI566
aa(lp3899
I203
aI581
aa(lp3900
I210
aI611
aa(lp3901
I215
aI629
aa(lp3902
I223
aI657
aa(lp3903
I226
aI673
aa(lp3904
I228
aI686
aa(lp3905
I236
aI703
aa(lp3906
I246
aI733
aa(lp3907
I248
aI748
aa(lp3908
I251
aI771
aa(lp3909
I253
aI779
aa(lp3910
I258
aI792
aa(lp3911
I260
aI798
aa(lp3912
I264
aI808
aa(lp3913
I268
aI820
aa(lp3914
I268
aI826
aa(lp3915
I268
aI827
aa(lp3916
I272
aI837
aa(lp3917
I272
aI842
aa(lp3918
I274
aI846
aa(lp3919
I274
aI850
aa(lp3920
I275
aI854
aa(lp3921
I276
aI857
aa(lp3922
I278
aI858
aa(lp3923
I279
aI859
aa(lp3924
I281
aI859
aa(lp3925
I284
aI859
aa(lp3926
I288
aI859
aa(lp3927
I292
aI859
aa(lp3928
I294
aI859
aa(lp3929
I303
aI859
aa(lp3930
I313
aI854
aa(lp3931
I318
aI852
aa(lp3932
I323
aI848
aa(lp3933
I329
aI843
aa(lp3934
I334
aI840
aa(lp3935
I339
aI838
aa(lp3936
I344
aI835
aa(lp3937
I352
aI830
aa(lp3938
I358
aI828
aa(lp3939
I376
aI819
aa(lp3940
I397
aI813
aa(lp3941
I407
aI808
aa(lp3942
I416
aI803
aa(lp3943
I430
aI799
aa(lp3944
I437
aI797
aa(lp3945
I452
aI796
aa(lp3946
I461
aI792
aa(lp3947
I472
aI788
aa(lp3948
I484
aI784
aa(lp3949
I503
aI777
aa(lp3950
I510
aI773
aa(lp3951
I522
aI767
aa(lp3952
I531
aI762
aa(lp3953
I542
aI758
aa(lp3954
I551
aI756
aa(lp3955
I558
aI754
aa(lp3956
I565
aI751
aa(lp3957
I579
aI746
aa(lp3958
I585
aI744
aa(lp3959
I593
aI741
aa(lp3960
I599
aI739
aa(lp3961
I607
aI738
aa(lp3962
I613
aI736
aa(lp3963
I620
aI733
aa(lp3964
I626
aI733
aa(lp3965
I633
aI731
aa(lp3966
I639
aI728
aa(lp3967
I643
aI725
aa(lp3968
I650
aI722
aa(lp3969
I655
aI720
aa(lp3970
I660
aI717
aa(lp3971
I665
aI714
aa(lp3972
I670
aI711
aa(lp3973
I676
aI709
aa(lp3974
I682
aI706
aa(lp3975
I689
aI702
aa(lp3976
I695
aI700
aa(lp3977
I700
aI699
aa(lp3978
I705
aI698
aa(lp3979
I710
aI695
aa(lp3980
I715
aI694
aa(lp3981
I721
aI691
aa(lp3982
I726
aI688
aa(lp3983
I739
aI683
aa(lp3984
I750
aI679
aa(lp3985
I767
aI670
aa(lp3986
I770
aI669
aa(lp3987
I774
aI667
aa(lp3988
I778
aI663
aa(lp3989
I780
aI660
aa(lp3990
I784
aI655
aa(lp3991
I786
aI650
aa(lp3992
I789
aI646
aa(lp3993
I791
aI641
aa(lp3994
I794
aI638
aa(lp3995
I795
aI634
aa(lp3996
I798
aI629
aa(lp3997
I799
aI625
aa(lp3998
I800
aI621
aa(lp3999
I800
aI619
aa(lp4000
I802
aI615
aa(lp4001
I803
aI610
aa(lp4002
I803
aI607
aa(lp4003
I805
aI601
aa(lp4004
I805
aI596
aa(lp4005
I807
aI586
aa(lp4006
I807
aI581
aa(lp4007
I807
aI575
aa(lp4008
I808
aI568
aa(lp4009
I808
aI564
aa(lp4010
I808
aI559
aa(lp4011
I808
aI550
aa(lp4012
I808
aI540
aa(lp4013
I808
aI536
aa(lp4014
I808
aI530
aa(lp4015
I805
aI525
aa(lp4016
I801
aI520
aa(lp4017
I797
aI516
aa(lp4018
I790
aI512
aa(lp4019
I784
aI505
aa(lp4020
I776
aI501
aa(lp4021
I772
aI498
aa(lp4022
I762
aI493
aa(lp4023
I758
aI490
aa(lp4024
I749
aI485
aa(lp4025
I741
aI482
aa(lp4026
I733
aI477
aa(lp4027
I728
aI474
aa(lp4028
I719
aI470
aa(lp4029
I714
aI467
aa(lp4030
I705
aI463
aa(lp4031
I697
aI459
aa(lp4032
I689
aI455
aa(lp4033
I678
aI451
aa(lp4034
I673
aI449
aa(lp4035
I663
aI446
aa(lp4036
I655
aI446
aa(lp4037
I647
aI444
aa(lp4038
I639
aI443
aa(lp4039
I627
aI439
aa(lp4040
I618
aI436
aa(lp4041
I608
aI436
aa(lp4042
I597
aI433
aa(lp4043
I587
aI433
aa(lp4044
I577
aI431
aa(lp4045
I566
aI427
aa(lp4046
I556
aI426
aa(lp4047
I543
aI424
aa(lp4048
I533
aI420
aa(lp4049
I520
aI419
aa(lp4050
I509
aI417
aa(lp4051
I498
aI413
aa(lp4052
I486
aI413
aa(lp4053
I475
aI409
aa(lp4054
I464
aI407
aa(lp4055
I452
aI405
aa(lp4056
I441
aI403
aa(lp4057
I430
aI400
aa(lp4058
I418
aI398
aa(lp4059
I407
aI394
aa(lp4060
I405
aI394
aa(lp4061
I390
aI389
aa(lp4062
I384
aI385
aa(lp4063
I372
aI383
aa(lp4064
I361
aI380
aa(lp4065
I350
aI376
aa(lp4066
I338
aI371
aa(lp4067
I333
aI367
aa(lp4068
I324
aI364
aa(lp4069
I319
aI362
aa(lp4070
I310
aI359
aa(lp4071
I305
aI355
aa(lp4072
I297
aI352
aa(lp4073
I292
aI349
aa(lp4074
I288
aI346
aa(lp4075
I279
aI340
aa(lp4076
I272
aI337
aa(lp4077
I269
aI336
aa(lp4078
I265
aI332
aa(lp4079
I262
aI328
aa(lp4080
I260
aI324
aa(lp4081
I257
aI320
aa(lp4082
I253
aI315
aa(lp4083
I249
aI309
aa(lp4084
I248
aI305
aa(lp4085
I247
aI301
aa(lp4086
I246
aI296
aa(lp4087
I243
aI291
aa(lp4088
I243
aI289
aa(lp4089
I242
aI285
aa(lp4090
I242
aI281
aa(lp4091
I241
aI277
aa(lp4092
I241
aI274
aa(lp4093
I241
aI269
aa(lp4094
I239
aI264
aa(lp4095
I239
aI258
aa(lp4096
I239
aI255
aa(lp4097
I239
aI251
aa(lp4098
I239
aI248
aa(lp4099
I239
aI245
aa(lp4100
I239
aI242
aa(lp4101
I239
aI238
aa(lp4102
I239
aI236
aa(lp4103
I239
aI233
aa(lp4104
I239
aI231
aa(lp4105
I239
aI230
aa(lp4106
I239
aI227
aa(lp4107
I239
aI226
aa(lp4108
I239
aI223
aa(lp4109
I239
aI221
aa(lp4110
I239
aI218
aa(lp4111
I242
aI216
aa(lp4112
I247
aI213
aa(lp4113
I251
aI211
aa(lp4114
I256
aI208
aa(lp4115
I261
aI206
aa(lp4116
I266
aI203
aa(lp4117
I274
aI199
aa(lp4118
I278
aI196
aa(lp4119
I285
aI194
aa(lp4120
I290
aI192
aa(lp4121
I296
aI189
aa(lp4122
I303
aI187
aa(lp4123
I310
aI184
aa(lp4124
I317
aI181
aa(lp4125
I326
aI180
aa(lp4126
I333
aI178
aa(lp4127
I342
aI174
aa(lp4128
I349
aI174
aa(lp4129
I359
aI172
aa(lp4130
I366
aI172
aa(lp4131
I374
aI169
aa(lp4132
I393
aI167
aa(lp4133
I403
aI167
aa(lp4134
I413
aI167
aa(lp4135
I423
aI167
aa(lp4136
I433
aI166
aa(lp4137
I444
aI166
aa(lp4138
I454
aI166
aa(lp4139
I465
aI166
aa(lp4140
I473
aI164
aa(lp4141
I487
aI164
aa(lp4142
I495
aI164
aa(lp4143
I505
aI164
aa(lp4144
I514
aI164
aa(lp4145
I522
aI164
aa(lp4146
I533
aI164
aa(lp4147
I540
aI164
aa(lp4148
I550
aI164
aa(lp4149
I559
aI164
aa(lp4150
I567
aI164
aa(lp4151
I575
aI164
aa(lp4152
I582
aI166
aa(lp4153
I588
aI170
aa(lp4154
I593
aI173
aa(lp4155
I597
aI176
aa(lp4156
I603
aI182
aa(lp4157
I609
aI186
aa(lp4158
I614
aI191
aa(lp4159
I618
aI193
aa(lp4160
I624
aI197
aa(lp4161
I628
aI200
aa(lp4162
I635
aI208
aa(lp4163
I637
aI212
aa(lp4164
I640
aI218
aa(lp4165
I642
aI222
aa(lp4166
I645
aI229
aa(lp4167
I646
aI235
aa(lp4168
I646
aI242
aa(lp4169
I646
aI248
aa(lp4170
I646
aI257
aa(lp4171
I646
aI261
aa(lp4172
I646
aI270
aa(lp4173
I646
aI274
aa(lp4174
I646
aI284
aa(lp4175
I646
aI291
aa(lp4176
I646
aI298
aa(lp4177
I646
aI307
aa(lp4178
I646
aI316
aa(lp4179
I646
aI325
aa(lp4180
I646
aI329
aa(lp4181
I646
aI340
aa(lp4182
I642
aI351
aa(lp4183
I637
aI361
aa(lp4184
I632
aI369
aa(lp4185
I627
aI379
aa(lp4186
I618
aI389
aa(lp4187
I613
aI398
aa(lp4188
I606
aI407
aa(lp4189
I599
aI416
aa(lp4190
I594
aI421
aa(lp4191
I573
aI444
aa(lp4192
I563
aI454
aa(lp4193
I552
aI464
aa(lp4194
I542
aI474
aa(lp4195
I530
aI484
aa(lp4196
I520
aI492
aa(lp4197
I508
aI501
aa(lp4198
I495
aI511
aa(lp4199
I483
aI521
aa(lp4200
I472
aI530
aa(lp4201
I460
aI540
aa(lp4202
I449
aI549
aa(lp4203
I434
aI559
aa(lp4204
I423
aI568
aa(lp4205
I412
aI579
aa(lp4206
I399
aI590
aa(lp4207
I386
aI599
aa(lp4208
I375
aI605
aa(lp4209
I362
aI612
aa(lp4210
I352
aI618
aa(lp4211
I341
aI627
aa(lp4212
I335
aI633
aa(lp4213
I325
aI645
aa(lp4214
I314
aI653
aa(lp4215
I308
aI659
aa(lp4216
I296
aI673
aa(lp4217
I292
aI679
aa(lp4218
I287
aI685
aa(lp4219
I281
aI690
aa(lp4220
I278
aI696
aa(lp4221
I273
aI704
aa(lp4222
I269
aI708
aa(lp4223
I268
aI712
aa(lp4224
I267
aI720
aa(lp4225
I267
aI724
aa(lp4226
I267
aI732
aa(lp4227
I267
aI736
aa(lp4228
I267
aI740
aa(lp4229
I267
aI750
aa(lp4230
I267
aI753
aa(lp4231
I267
aI757
aa(lp4232
I267
aI760
aa(lp4233
I267
aI764
aa(lp4234
I267
aI767
aa(lp4235
I267
aI770
aa(lp4236
I270
aI777
aa(lp4237
I274
aI781
aa(lp4238
I280
aI785
aa(lp4239
I285
aI790
aa(lp4240
I291
aI794
aa(lp4241
I298
aI801
aa(lp4242
I306
aI806
aa(lp4243
I315
aI814
aa(lp4244
I323
aI819
aa(lp4245
I333
aI824
aa(lp4246
I342
aI830
aa(lp4247
I352
aI833
aa(lp4248
I363
aI837
aa(lp4249
I371
aI840
aa(lp4250
I385
aI844
aa(lp4251
I394
aI845
aa(lp4252
I405
aI849
aa(lp4253
I416
aI854
aa(lp4254
I427
aI858
aa(lp4255
I438
aI862
aa(lp4256
I448
aI865
aa(lp4257
I457
aI867
aa(lp4258
I468
aI869
aa(lp4259
I479
aI873
aa(lp4260
I488
aI873
aa(lp4261
I499
aI875
aa(lp4262
I508
aI875
aa(lp4263
I517
aI875
aa(lp4264
I524
aI875
aa(lp4265
I531
aI875
aa(lp4266
I539
aI875
aa(lp4267
I547
aI876
aa(lp4268
I555
aI876
aa(lp4269
I563
aI876
aa(lp4270
I571
aI876
aa(lp4271
I586
aI876
aa(lp4272
I594
aI876
aa(lp4273
I600
aI876
aa(lp4274
I607
aI876
aa(lp4275
I615
aI876
aa(lp4276
I622
aI876
aa(lp4277
I626
aI876
aa(lp4278
I632
aI876
aa(lp4279
I639
aI876
aa(lp4280
I644
aI876
aa(lp4281
I649
aI876
aa(lp4282
I654
aI876
aa(lp4283
I657
aI876
aa(lp4284
I661
aI876
aa(lp4285
I663
aI876
aa(lp4286
I667
aI878
aa(lp4287
I669
aI884
aa(lp4288
I671
aI891
aa(lp4289
I672
aI895
aa(lp4290
I672
aI899
aa(lp4291
I672
aI909
aa(lp4292
I672
aI915
aa(lp4293
I672
aI923
aa(lp4294
I672
aI932
aa(lp4295
I672
aI936
aa(lp4296
I671
aI944
aa(lp4297
I667
aI948
aa(lp4298
I658
aI956
aa(lp4299
I648
aI961
aa(lp4300
I637
aI967
aa(lp4301
I626
aI969
aa(lp4302
I617
aI972
aa(lp4303
I607
aI974
aa(lp4304
I594
aI974
aa(lp4305
I581
aI976
aa(lp4306
I568
aI978
aa(lp4307
I550
aI980
aa(lp4308
I536
aI980
aa(lp4309
I524
aI980
aa(lp4310
I506
aI980
aa(lp4311
I492
aI980
aa(lp4312
I473
aI980
aa(lp4313
I463
aI980
aa(lp4314
I440
aI980
aa(lp4315
I429
aI980
aa(lp4316
I416
aI980
aa(lp4317
I401
aI980
aa(lp4318
I388
aI978
aa(lp4319
I375
aI969
aa(lp4320
I367
aI960
aa(lp4321
I354
aI948
aa(lp4322
I340
aI927
aa(lp4323
I334
aI918
aa(lp4324
I326
aI900
aa(lp4325
I326
aI893
aa(lp4326
I326
aI887
aa(lp4327
I326
aI878
aa(lp4328
I326
aI856
aa(lp4329
I326
aI839
aa(lp4330
I326
aI831
aa(lp4331
I326
aI822
aa(lp4332
I326
aI808
aa(lp4333
I334
aI785
aa(lp4334
I340
aI775
aa(lp4335
I350
aI759
aa(lp4336
I355
aI748
aa(lp4337
I363
aI738
aa(lp4338
I371
aI728
aa(lp4339
I381
aI716
aa(lp4340
I392
aI694
aa(lp4341
I399
aI685
aa(lp4342
I424
aI652
aa(lp4343
I437
aI638
aa(lp4344
I449
aI629
aa(lp4345
I474
aI608
aa(lp4346
I488
aI594
aa(lp4347
I497
aI585
aa(lp4348
I508
aI576
aa(lp4349
I519
aI565
aa(lp4350
I531
aI554
aa(lp4351
I542
aI545
aa(lp4352
I551
aI538
aa(lp4353
I564
aI527
aa(lp4354
I574
aI521
aa(lp4355
I587
aI510
aa(lp4356
I597
aI502
aa(lp4357
I608
aI492
aa(lp4358
I630
aI469
aa(lp4359
I639
aI463
aa(lp4360
I647
aI453
aa(lp4361
I654
aI447
aa(lp4362
I664
aI439
aa(lp4363
I670
aI435
aa(lp4364
I676
aI430
aa(lp4365
I683
aI424
aa(lp4366
I687
aI421
aa(lp4367
I690
aI414
aa(lp4368
I693
aI409
aa(lp4369
I696
aI403
aa(lp4370
I700
aI396
aa(lp4371
I701
aI392
aa(lp4372
I703
aI386
aa(lp4373
I704
aI381
aa(lp4374
I705
aI375
aa(lp4375
I705
aI372
aa(lp4376
I705
aI362
aa(lp4377
I705
aI358
aa(lp4378
I705
aI354
aa(lp4379
I705
aI349
aa(lp4380
I705
aI345
aa(lp4381
I705
aI339
aa(lp4382
I705
aI335
aa(lp4383
I701
aI329
aa(lp4384
I698
aI325
aa(lp4385
I691
aI318
aa(lp4386
I683
aI313
aa(lp4387
I674
aI308
aa(lp4388
I669
aI303
aa(lp4389
I657
aI298
aa(lp4390
I649
aI296
aa(lp4391
I640
aI293
aa(lp4392
I632
aI290
aa(lp4393
I622
aI286
aa(lp4394
I612
aI283
aa(lp4395
I595
aI278
aa(lp4396
I587
aI276
aa(lp4397
I578
aI273
aa(lp4398
I573
aI271
aa(lp4399
I569
aI271
aa(lp4400
I562
aI271
aa(lp4401
I557
aI271
aa(lp4402
I553
aI271
aa(lp4403
I549
aI271
aa(lp4404
I545
aI271
aa(lp4405
I544
aI271
aa(lp4406
I541
aI271
aa(lp4407
I540
aI271
aa(lp4408
I539
aI271
aa(lp4409
I537
aI271
aa(lp4410
I537
aI278
aa(lp4411
I537
aI284
aa(lp4412
I537
aI290
aa(lp4413
I537
aI294
aa(lp4414
I537
aI302
aa(lp4415
I537
aI306
aa(lp4416
I537
aI314
aa(lp4417
I542
aI321
aa(lp4418
I547
aI325
aa(lp4419
I555
aI333
aa(lp4420
I564
aI340
aa(lp4421
I572
aI346
aa(lp4422
I583
aI357
aa(lp4423
I593
aI367
aa(lp4424
I605
aI379
aa(lp4425
I613
aI391
aa(lp4426
I636
aI414
aa(lp4427
I649
aI425
aa(lp4428
I659
aI433
aa(lp4429
I672
aI446
aa(lp4430
I683
aI457
aa(lp4431
I696
aI472
aa(lp4432
I709
aI488
aa(lp4433
I719
aI504
aa(lp4434
I728
aI515
aa(lp4435
I739
aI529
aa(lp4436
I749
aI543
aa(lp4437
I760
aI557
aa(lp4438
I772
aI583
aa(lp4439
I782
aI600
aa(lp4440
I792
aI622
aa(lp4441
I797
aI634
aa(lp4442
I806
aI649
aa(lp4443
I821
aI676
aa(lp4444
I826
aI691
aa(lp4445
I839
aI721
aa(lp4446
I841
aI734
aa(lp4447
I849
aI757
aa(lp4448
I854
aI769
aa(lp4449
I861
aI787
aa(lp4450
I864
aI804
aa(lp4451
I869
aI827
aa(lp4452
I874
aI844
aa(lp4453
I874
aI859
aa(lp4454
I874
aI871
aa(lp4455
I876
aI884
aa(lp4456
I876
aI898
aa(lp4457
I876
aI911
aa(lp4458
I876
aI935
aa(lp4459
I876
aI945
aa(lp4460
I876
aI954
aa(lp4461
I876
aI958
aa(lp4462
I874
aI965
aa(lp4463
I866
aI972
aa(lp4464
I857
aI979
aa(lp4465
I838
aI990
aa(lp4466
I824
aI997
aa(lp4467
I803
aI999
aa(lp4468
I790
aI1006
aa(lp4469
I776
aI1008
aa(lp4470
I728
aI1011
aa(lp4471
I715
aI1011
aa(lp4472
I699
aI1011
aa(lp4473
I689
aI1011
aa(lp4474
I679
aI1009
aa(lp4475
I669
aI998
aa(lp4476
I658
aI990
aa(lp4477
I637
aI958
aa(lp4478
I635
aI944
aa(lp4479
I628
aI921
aa(lp4480
I628
aI912
aa(lp4481
I626
aI900
aa(lp4482
I626
aI873
aa(lp4483
I626
aI862
aa(lp4484
I626
aI834
aa(lp4485
I626
aI822
aa(lp4486
I626
aI804
aa(lp4487
I626
aI792
aa(lp4488
I626
aI779
aa(lp4489
I632
aI762
aa(lp4490
I637
aI744
aa(lp4491
I646
aI726
aa(lp4492
I652
aI713
aa(lp4493
I661
aI695
aa(lp4494
I668
aI686
aa(lp4495
I681
aI668
aa(lp4496
I716
aI613
aa(lp4497
I725
aI599
aa(lp4498
I734
aI585
aa(lp4499
I741
aI576
aa(lp4500
I750
aI562
aa(lp4501
I760
aI548
aa(lp4502
I767
aI534
aa(lp4503
I783
aI506
aa(lp4504
I790
aI500
aa(lp4505
I800
aI483
aa(lp4506
I802
aI478
aa(lp4507
I806
aI473
aa(lp4508
I810
aI466
aa(lp4509
I814
aI457
aa(lp4510
I817
aI447
aa(lp4511
I819
aI440
aa(lp4512
I821
aI433
aa(lp4513
I823
aI427
aa(lp4514
I823
aI418
aa(lp4515
I823
aI414
aa(lp4516
I824
aI409
aa(lp4517
I824
aI405
aa(lp4518
I824
aI400
aa(lp4519
I824
aI395
aa(lp4520
I824
aI390
aa(lp4521
I824
aI385
aa(lp4522
I824
aI377
aa(lp4523
I824
aI372
aa(lp4524
I824
aI365
aa(lp4525
I824
aI358
aa(lp4526
I824
aI354
aa(lp4527
I824
aI348
aa(lp4528
I824
aI345
aa(lp4529
I824
aI340
aa(lp4530
I824
aI338
aa(lp4531
I824
aI333
aa(lp4532
I824
aI328
aa(lp4533
I824
aI320
aa(lp4534
I824
aI315
aa(lp4535
I824
aI309
aa(lp4536
I824
aI305
aa(lp4537
I824
aI298
aa(lp4538
I824
aI295
aa(lp4539
I821
aI290
aa(lp4540
I819
aI286
aa(lp4541
I816
aI282
aa(lp4542
I814
aI278
aa(lp4543
I811
aI275
aa(lp4544
I809
aI271
aa(lp4545
I806
aI267
aa(lp4546
I805
aI263
aa(lp4547
I802
aI259
aa(lp4548
I800
aI258
aa(lp4549
I799
aI256
aa(lp4550
I796
aI254
aa(lp4551
I794
aI253
aa(lp4552
I791
aI252
aa(lp4553
I789
aI252
aa(lp4554
I786
aI251
aa(lp4555
I785
aI251
aa(lp4556
I784
aI251
aa(lp4557
I782
aI251
aa(lp4558
I781
aI251
aa(lp4559
I780
aI251
aa(lp4560
I779
aI251
aa(lp4561
I777
aI251
aa(lp4562
I776
aI251
aa(lp4563
I775
aI251
aa(lp4564
I775
aI257
aa(lp4565
I775
aI261
aa(lp4566
I775
aI264
aa(lp4567
I775
aI268
aa(lp4568
I775
aI282
aa(lp4569
I775
aI288
aa(lp4570
I775
aI295
aa(lp4571
I775
aI302
aa(lp4572
I777
aI310
aa(lp4573
I779
aI317
aa(lp4574
I783
aI330
aa(lp4575
I784
aI332
aa(lp4576
I788
aI340
aa(lp4577
I791
aI347
aa(lp4578
I794
aI352
aa(lp4579
I798
aI362
aa(lp4580
I801
aI369
aa(lp4581
I804
aI377
aa(lp4582
I808
aI382
aa(lp4583
I814
aI394
aa(lp4584
I819
aI407
aa(lp4585
I822
aI416
aa(lp4586
I824
aI423
aa(lp4587
I827
aI434
aa(lp4588
I829
aI444
aa(lp4589
I830
aI454
aa(lp4590
I830
aI458
aa(lp4591
I832
aI466
aa(lp4592
I833
aI474
aa(lp4593
I836
aI483
aa(lp4594
I838
aI494
aa(lp4595
I838
aI506
aa(lp4596
I838
aI518
aa(lp4597
I840
aI526
aa(lp4598
I840
aI537
aa(lp4599
I840
aI546
aa(lp4600
I840
aI555
aa(lp4601
I840
aI565
aa(lp4602
I840
aI574
aa(lp4603
I840
aI596
aa(lp4604
I840
aI606
aa(lp4605
I840
aI615
aa(lp4606
I840
aI624
aa(lp4607
I840
aI633
aa(lp4608
I840
aI641
aa(lp4609
I840
aI652
aa(lp4610
I840
aI663
aa(lp4611
I840
aI674
aa(lp4612
I840
aI686
aa(lp4613
I840
aI691
aa(lp4614
I835
aI701
aa(lp4615
I831
aI706
aa(lp4616
I826
aI714
aa(lp4617
I821
aI722
aa(lp4618
I815
aI732
aa(lp4619
I808
aI742
aa(lp4620
I803
aI751
aa(lp4621
I793
aI759
aa(lp4622
I784
aI768
aa(lp4623
I775
aI774
aa(lp4624
I769
aI779
aa(lp4625
I753
aI788
aa(lp4626
I747
aI790
aa(lp4627
I734
aI798
aa(lp4628
I721
aI803
aa(lp4629
I710
aI805
aa(lp4630
I699
aI811
aa(lp4631
I685
aI814
aa(lp4632
I673
aI818
aa(lp4633
I660
aI818
aa(lp4634
I648
aI822
aa(lp4635
I636
aI822
aa(lp4636
I625
aI822
aa(lp4637
I615
aI822
aa(lp4638
I602
aI822
aa(lp4639
I591
aI822
aa(lp4640
I580
aI822
aa(lp4641
I570
aI822
aa(lp4642
I559
aI822
aa(lp4643
I553
aI822
aa(lp4644
I543
aI822
aa(lp4645
I538
aI822
aa(lp4646
I529
aI822
aa(lp4647
I524
aI819
aa(lp4648
I514
aI813
aa(lp4649
I511
aI809
aa(lp4650
I504
aI806
aa(lp4651
I499
aI804
aa(lp4652
I495
aI798
aa(lp4653
I491
aI795
aa(lp4654
I487
aI791
aa(lp4655
I483
aI786
aa(lp4656
I480
aI783
aa(lp4657
I475
aI778
aa(lp4658
I472
aI774
aa(lp4659
I470
aI770
aa(lp4660
I466
aI767
aa(lp4661
I461
aI758
aa(lp4662
I458
aI754
aa(lp4663
I457
aI751
aa(lp4664
I453
aI742
aa(lp4665
I451
aI737
aa(lp4666
I449
aI732
aa(lp4667
I449
aI727
aa(lp4668
I449
aI720
aa(lp4669
I448
aI713
aa(lp4670
I448
aI707
aa(lp4671
I448
aI702
aa(lp4672
I448
aI696
aa(lp4673
I448
aI691
aa(lp4674
I448
aI684
aa(lp4675
I448
aI676
aa(lp4676
I448
aI665
aa(lp4677
I448
aI653
aa(lp4678
I448
aI645
aa(lp4679
I448
aI637
aa(lp4680
I448
aI627
aa(lp4681
I448
aI617
aa(lp4682
I448
aI607
aa(lp4683
I448
aI594
aa(lp4684
I452
aI575
aa(lp4685
I455
aI564
aa(lp4686
I461
aI545
aa(lp4687
I465
aI537
aa(lp4688
I473
aI527
aa(lp4689
I485
aI507
aa(lp4690
I494
aI494
aa(lp4691
I515
aI460
aa(lp4692
I522
aI451
aa(lp4693
I535
aI438
aa(lp4694
I549
aI424
aa(lp4695
I563
aI400
aa(lp4696
I576
aI385
aa(lp4697
I593
aI360
aa(lp4698
I603
aI350
aa(lp4699
I621
aI330
aa(lp4700
I634
aI317
aa(lp4701
I654
aI296
aa(lp4702
I668
aI280
aa(lp4703
I689
aI253
aa(lp4704
I703
aI237
aa(lp4705
I719
aI221
aa(lp4706
I736
aI204
aa(lp4707
I757
aI185
aa(lp4708
I777
aI163
aa(lp4709
I811
aI123
aa(lp4710
I831
aI100
aa(lp4711
I845
aI86
aa(lp4712
I862
aI69
aa(lp4713
I892
aI45
aa(lp4714
I922
aI12
aa(lp4715
I478
aI4
aa(lp4716
I458
aI11
aa(lp4717
I452
aI13
aa(lp4718
I433
aI19
aa(lp4719
I420
aI24
aa(lp4720
I405
aI28
aa(lp4721
I375
aI36
aa(lp4722
I360
aI43
aa(lp4723
I347
aI47
aa(lp4724
I334
aI51
aa(lp4725
I322
aI58
aa(lp4726
I309
aI64
aa(lp4727
I299
aI68
aa(lp4728
I289
aI72
aa(lp4729
I278
aI76
aa(lp4730
I273
aI78
aa(lp4731
I263
aI82
aa(lp4732
I254
aI86
aa(lp4733
I245
aI89
aa(lp4734
I239
aI91
aa(lp4735
I231
aI95
aa(lp4736
I222
aI96
aa(lp4737
I217
aI98
aa(lp4738
I209
aI101
aa(lp4739
I205
aI103
aa(lp4740
I197
aI106
aa(lp4741
I189
aI108
aa(lp4742
I182
aI110
aa(lp4743
I178
aI111
aa(lp4744
I174
aI111
aa(lp4745
I168
aI111
aa(lp4746
I164
aI112
aa(lp4747
I160
aI112
aa(lp4748
I154
aI114
aa(lp4749
I150
aI114
aa(lp4750
I147
aI114
aa(lp4751
I143
aI114
aa(lp4752
I139
aI115
aa(lp4753
I135
aI116
aa(lp4754
I128
aI116
aa(lp4755
I124
aI116
aa(lp4756
I120
aI116
aa(lp4757
I118
aI116
aa(lp4758
I115
aI116
aa(lp4759
I113
aI116
aa(lp4760
I110
aI116
aa(lp4761
I108
aI116
aa(lp4762
I106
aI116
aa(lp4763
I102
aI116
aa(lp4764
I100
aI116
aa(lp4765
I97
aI116
aa(lp4766
I95
aI116
aa(lp4767
I92
aI116
aa(lp4768
I90
aI116
aa(lp4769
I87
aI116
aa(lp4770
I86
aI116
aa(lp4771
I84
aI116
aa(lp4772
I82
aI115
aa(lp4773
I81
aI111
aa(lp4774
I80
aI107
aa(lp4775
I79
aI105
aa(lp4776
I77
aI102
aa(lp4777
I76
aI97
aa(lp4778
I75
aI96
aa(lp4779
I75
aI92
aa(lp4780
I75
aI87
aa(lp4781
I75
aI85
aa(lp4782
I75
aI81
aa(lp4783
I75
aI78
aa(lp4784
I75
aI76
aa(lp4785
I75
aI74
aa(lp4786
I75
aI73
aa(lp4787
I75
aI72
aa(lp4788
I75
aI71
aa(lp4789
I75
aI68
aa(lp4790
I75
aI66
aa(lp4791
I75
aI64
aa(lp4792
I75
aI63
aa(lp4793
I74
aI63
aa(lp4794
I71
aI63
aa(lp4795
I68
aI63
aa(lp4796
I66
aI63
aa(lp4797
I63
aI63
aa(lp4798
I61
aI63
aa(lp4799
I58
aI63
aa(lp4800
I56
aI63
aa(lp4801
I53
aI63
aa(lp4802
I52
aI63
aa(lp4803
I50
aI66
aa(lp4804
I47
aI68
aa(lp4805
I46
aI71
aa(lp4806
I45
aI74
aa(lp4807
I43
aI77
aa(lp4808
I42
aI81
aa(lp4809
I40
aI83
aa(lp4810
I38
aI87
aa(lp4811
I37
aI91
aa(lp4812
I34
aI95
aa(lp4813
I33
aI98
aa(lp4814
I31
aI105
aa(lp4815
I29
aI108
aa(lp4816
I28
aI112
aa(lp4817
I27
aI116
aa(lp4818
I26
aI120
aa(lp4819
I26
aI124
aa(lp4820
I24
aI127
aa(lp4821
I24
aI131
aa(lp4822
I24
aI135
aa(lp4823
I23
aI139
aa(lp4824
I23
aI142
aa(lp4825
I22
aI146
aa(lp4826
I22
aI153
aa(lp4827
I22
aI156
aa(lp4828
I22
aI160
aa(lp4829
I22
aI166
aa(lp4830
I22
aI170
aa(lp4831
I22
aI174
aa(lp4832
I22
aI178
aa(lp4833
I22
aI182
aa(lp4834
I22
aI185
aa(lp4835
I22
aI192
aa(lp4836
I22
aI195
aa(lp4837
I22
aI199
aa(lp4838
I22
aI203
aa(lp4839
I22
aI210
aa(lp4840
I22
aI214
aa(lp4841
I22
aI221
aa(lp4842
I22
aI227
aa(lp4843
I22
aI231
aa(lp4844
I24
aI238
aa(lp4845
I31
aI248
aa(lp4846
I34
aI253
aa(lp4847
I36
aI259
aa(lp4848
I39
aI266
aa(lp4849
I40
aI271
aa(lp4850
I43
aI277
aa(lp4851
I46
aI282
aa(lp4852
I49
aI288
aa(lp4853
I50
aI295
aa(lp4854
I51
aI300
aa(lp4855
I54
aI304
aa(lp4856
I57
aI312
aa(lp4857
I60
aI319
aa(lp4858
I62
aI333
aa(lp4859
I65
aI348
aa(lp4860
I67
aI356
aa(lp4861
I67
aI363
aa(lp4862
I68
aI367
aa(lp4863
I70
aI376
aa(lp4864
I70
aI383
aa(lp4865
I70
aI392
aa(lp4866
I70
aI403
aa(lp4867
I71
aI412
aa(lp4868
I71
aI424
aa(lp4869
I73
aI434
aa(lp4870
I73
aI439
aa(lp4871
I75
aI450
aa(lp4872
I75
aI460
aa(lp4873
I75
aI470
aa(lp4874
I75
aI486
aa(lp4875
I75
aI495
aa(lp4876
I75
aI505
aa(lp4877
I75
aI514
aa(lp4878
I75
aI520
aa(lp4879
I75
aI530
aa(lp4880
I75
aI536
aa(lp4881
I75
aI551
aa(lp4882
I75
aI555
aa(lp4883
I75
aI564
aa(lp4884
I75
aI569
aa(lp4885
I75
aI571
aa(lp4886
I75
aI573
aa(lp4887
I75
aI574
aa(lp4888
I68
aI588
aa(lp4889
I65
aI592
aa(lp4890
I63
aI599
aa(lp4891
I60
aI603
aa(lp4892
I57
aI611
aa(lp4893
I56
aI615
aa(lp4894
I53
aI622
aa(lp4895
I52
aI629
aa(lp4896
I52
aI633
aa(lp4897
I52
aI640
aa(lp4898
I52
aI644
aa(lp4899
I52
aI648
aa(lp4900
I52
aI662
aa(lp4901
I52
aI666
aa(lp4902
I52
aI670
aa(lp4903
I52
aI676
aa(lp4904
I52
aI682
aa(lp4905
I52
aI686
aa(lp4906
I52
aI692
aa(lp4907
I52
aI696
aa(lp4908
I52
aI700
aa(lp4909
I52
aI708
aa(lp4910
I52
aI711
aa(lp4911
I52
aI718
aa(lp4912
I52
aI721
aa(lp4913
I52
aI725
aa(lp4914
I52
aI729
aa(lp4915
I52
aI733
aa(lp4916
I52
aI739
aa(lp4917
I52
aI747
aa(lp4918
I52
aI750
aa(lp4919
I52
aI757
aa(lp4920
I52
aI763
aa(lp4921
I52
aI769
aa(lp4922
I52
aI779
aa(lp4923
I52
aI792
aa(lp4924
I52
aI805
aa(lp4925
I52
aI812
aa(lp4926
I52
aI819
aa(lp4927
I52
aI827
aa(lp4928
I52
aI835
aa(lp4929
I52
aI842
aa(lp4930
I52
aI846
aa(lp4931
I52
aI854
aa(lp4932
I52
aI862
aa(lp4933
I52
aI871
aa(lp4934
I52
aI880
aa(lp4935
I52
aI888
aa(lp4936
I52
aI902
aa(lp4937
I52
aI919
aa(lp4938
I52
aI923
aa(lp4939
I52
aI933
aa(lp4940
I52
aI941
aa(lp4941
I52
aI949
aa(lp4942
I52
aI957
aa(lp4943
I52
aI965
aa(lp4944
I52
aI970
aa(lp4945
I52
aI979
aa(lp4946
I52
aI984
aa(lp4947
I52
aI989
aa(lp4948
I52
aI991
aa(lp4949
I52
aI995
aa(lp4950
I52
aI997
aa(lp4951
I52
aI1000
aa(lp4952
I52
aI1002
aa(lp4953
I52
aI1005
aa(lp4954
I52
aI1007
aa(lp4955
I52
aI1010
aa(lp4956
I54
aI1011
aa(lp4957
I60
aI1014
aa(lp4958
I65
aI1016
aa(lp4959
I69
aI1016
aa(lp4960
I73
aI1016
aa(lp4961
I78
aI1016
aa(lp4962
I83
aI1016
aa(lp4963
I89
aI1016
aa(lp4964
I94
aI1016
aa(lp4965
I101
aI1016
aa(lp4966
I106
aI1016
aa(lp4967
I116
aI1011
aa(lp4968
I122
aI1006
aa(lp4969
I129
aI998
aa(lp4970
I136
aI988
aa(lp4971
I146
aI972
aa(lp4972
I152
aI959
aa(lp4973
I163
aI942
aa(lp4974
I170
aI929
aa(lp4975
I178
aI906
aa(lp4976
I185
aI893
aa(lp4977
I199
aI865
aa(lp4978
I204
aI853
aa(lp4979
I211
aI829
aa(lp4980
I216
aI817
aa(lp4981
I223
aI798
aa(lp4982
I228
aI789
aa(lp4983
I235
aI763
aa(lp4984
I235
aI754
aa(lp4985
I235
aI744
aa(lp4986
I235
aI737
aa(lp4987
I235
aI732
aa(lp4988
I235
aI728
aa(lp4989
I235
aI725
aa(lp4990
I235
aI721
aa(lp4991
I235
aI720
aa(lp4992
I235
aI718
aa(lp4993
I235
aI716
aa(lp4994
I235
aI715
aa(lp4995
I235
aI719
aa(lp4996
I235
aI726
aa(lp4997
I235
aI739
aa(lp4998
I235
aI750
aa(lp4999
I235
aI764
aa(lp5000
I235
aI778
aa(lp5001
I239
aI790
aa(lp5002
I243
aI803
aa(lp5003
I247
aI815
aa(lp5004
I249
aI827
aa(lp5005
I253
aI839
aa(lp5006
I259
aI853
aa(lp5007
I263
aI865
aa(lp5008
I270
aI882
aa(lp5009
I278
aI902
aa(lp5010
I281
aI912
aa(lp5011
I285
aI921
aa(lp5012
I289
aI930
aa(lp5013
I292
aI936
aa(lp5014
I296
aI941
aa(lp5015
I299
aI946
aa(lp5016
I302
aI949
aa(lp5017
I307
aI952
aa(lp5018
I309
aI955
aa(lp5019
I313
aI956
aa(lp5020
I317
aI957
aa(lp5021
I321
aI958
aa(lp5022
I325
aI958
aa(lp5023
I330
aI960
aa(lp5024
I335
aI960
aa(lp5025
I339
aI960
aa(lp5026
I344
aI960
aa(lp5027
I349
aI960
aa(lp5028
I354
aI960
aa(lp5029
I360
aI960
aa(lp5030
I365
aI960
aa(lp5031
I371
aI960
aa(lp5032
I379
aI960
aa(lp5033
I385
aI960
aa(lp5034
I393
aI960
aa(lp5035
I399
aI960
aa(lp5036
I410
aI958
aa(lp5037
I416
aI955
aa(lp5038
I424
aI951
aa(lp5039
I437
aI945
aa(lp5040
I445
aI940
aa(lp5041
I453
aI934
aa(lp5042
I467
aI925
aa(lp5043
I475
aI922
aa(lp5044
I490
aI912
aa(lp5045
I498
aI909
aa(lp5046
I509
aI903
aa(lp5047
I520
aI897
aa(lp5048
I530
aI891
aa(lp5049
I543
aI884
aa(lp5050
I554
aI875
aa(lp5051
I557
aI873
aa(lp5052
I562
aI868
aa(lp5053
I566
aI866
aa(lp5054
I569
aI866
aa(lp5055
I573
aI864
aa(lp5056
I575
aI864
aa(lp5057
I579
aI863
aa(lp5058
I583
aI863
aa(lp5059
I586
aI863
aa(lp5060
I590
aI863
aa(lp5061
I595
aI863
aa(lp5062
I599
aI863
aa(lp5063
I603
aI863
aa(lp5064
I608
aI863
aa(lp5065
I612
aI863
aa(lp5066
I618
aI863
aa(lp5067
I623
aI863
aa(lp5068
I628
aI863
aa(lp5069
I634
aI863
aa(lp5070
I646
aI868
aa(lp5071
I652
aI872
aa(lp5072
I657
aI875
aa(lp5073
I663
aI878
aa(lp5074
I668
aI881
aa(lp5075
I675
aI885
aa(lp5076
I681
aI889
aa(lp5077
I688
aI893
aa(lp5078
I696
aI897
aa(lp5079
I703
aI902
aa(lp5080
I711
aI906
aa(lp5081
I720
aI911
aa(lp5082
I728
aI916
aa(lp5083
I738
aI918
aa(lp5084
I749
aI923
aa(lp5085
I759
aI928
aa(lp5086
I770
aI930
aa(lp5087
I780
aI932
aa(lp5088
I791
aI933
aa(lp5089
I813
aI935
aa(lp5090
I836
aI937
aa(lp5091
I848
aI939
aa(lp5092
I863
aI939
aa(lp5093
I885
aI939
aa(lp5094
I895
aI939
aa(lp5095
I910
aI939
aa(lp5096
I918
aI939
aa(lp5097
I924
aI939
aa(lp5098
I935
aI926
aa(lp5099
I937
aI924
aa(lp5100
I946
aI904
aa(lp5101
I950
aI895
aa(lp5102
I953
aI888
aa(lp5103
I956
aI880
aa(lp5104
I956
aI871
aa(lp5105
I960
aI858
aa(lp5106
I962
aI842
aa(lp5107
I962
aI836
aa(lp5108
I962
aI830
aa(lp5109
I962
aI822
aa(lp5110
I962
aI818
aa(lp5111
I962
aI811
aa(lp5112
I962
aI792
aa(lp5113
I962
aI788
aa(lp5114
I962
aI782
aa(lp5115
I962
aI776
aa(lp5116
I958
aI769
aa(lp5117
I956
aI765
aa(lp5118
I955
aI760
aa(lp5119
I955
aI755
aa(lp5120
I955
aI747
aa(lp5121
I954
aI739
aa(lp5122
I951
aI730
aa(lp5123
I948
aI721
aa(lp5124
I946
aI710
aa(lp5125
I945
aI702
aa(lp5126
I944
aI696
aa(lp5127
I944
aI691
aa(lp5128
I942
aI682
aa(lp5129
I939
aI675
aa(lp5130
I939
aI666
aa(lp5131
I936
aI651
aa(lp5132
I935
aI644
aa(lp5133
I933
aI638
aa(lp5134
I931
aI632
aa(lp5135
I930
aI628
aa(lp5136
I927
aI621
aa(lp5137
I924
aI615
aa(lp5138
I923
aI610
aa(lp5139
I922
aI604
aa(lp5140
I919
aI600
aa(lp5141
I918
aI597
aa(lp5142
I915
aI594
aa(lp5143
I913
aI590
aa(lp5144
I910
aI586
aa(lp5145
I907
aI582
aa(lp5146
I905
aI578
aa(lp5147
I902
aI577
aa(lp5148
I901
aI573
aa(lp5149
I899
aI567
aa(lp5150
I896
aI563
aa(lp5151
I892
aI557
aa(lp5152
I890
aI553
aa(lp5153
I886
aI547
aa(lp5154
I885
aI544
aa(lp5155
I884
aI541
aa(lp5156
I882
aI533
aa(lp5157
I882
aI529
aa(lp5158
I882
aI526
aa(lp5159
I882
aI523
aa(lp5160
I882
aI521
aa(lp5161
I882
aI517
aa(lp5162
I882
aI515
aa(lp5163
I882
aI512
aa(lp5164
I882
aI509
aa(lp5165
I882
aI507
aa(lp5166
I882
aI504
aa(lp5167
I882
aI492
aa(lp5168
I884
aI489
aa(lp5169
I896
aI476
aa(lp5170
I899
aI473
aa(lp5171
I901
aI469
aa(lp5172
I904
aI468
aa(lp5173
I906
aI466
aa(lp5174
I914
aI463
aa(lp5175
I934
aI452
aa(lp5176
I942
aI447
aa(lp5177
I949
aI444
aa(lp5178
I957
aI441
aa(lp5179
I958
aI441
aa(lp5180
I959
aI441
aa(lp5181
I959
aI436
aa(lp5182
I959
aI434
aa(lp5183
I959
aI432
aa(lp5184
I959
aI430
aa(lp5185
I959
aI427
aa(lp5186
I959
aI426
aa(lp5187
I959
aI422
aa(lp5188
I959
aI420
aa(lp5189
I959
aI418
aa(lp5190
I959
aI416
aa(lp5191
I959
aI415
aa(lp5192
I959
aI412
aa(lp5193
I959
aI410
aa(lp5194
I959
aI408
aa(lp5195
I959
aI407
aa(lp5196
I959
aI406
aa(lp5197
I959
aI405
aa(lp5198
I959
aI402
aa(lp5199
I959
aI401
aa(lp5200
I959
aI400
aa(lp5201
I958
aI397
aa(lp5202
I954
aI396
aa(lp5203
I950
aI395
aa(lp5204
I949
aI395
aa(lp5205
I947
aI393
aa(lp5206
I944
aI392
aa(lp5207
I942
aI392
aa(lp5208
I940
aI392
aa(lp5209
I938
aI390
aa(lp5210
I936
aI390
aa(lp5211
I934
aI388
aa(lp5212
I930
aI387
aa(lp5213
I928
aI386
aa(lp5214
I926
aI386
aa(lp5215
I924
aI385
aa(lp5216
I921
aI383
aa(lp5217
I919
aI382
aa(lp5218
I916
aI379
aa(lp5219
I914
aI378
aa(lp5220
I910
aI374
aa(lp5221
I908
aI373
aa(lp5222
I905
aI371
aa(lp5223
I901
aI371
aa(lp5224
I897
aI365
aa(lp5225
I893
aI364
aa(lp5226
I890
aI363
aa(lp5227
I886
aI362
aa(lp5228
I882
aI360
aa(lp5229
I860
aI356
aa(lp5230
I858
aI356
aa(lp5231
I851
aI356
aa(lp5232
I836
aI356
aa(lp5233
I825
aI356
aa(lp5234
I817
aI356
aa(lp5235
I803
aI356
aa(lp5236
I794
aI356
aa(lp5237
I786
aI356
aa(lp5238
I776
aI356
aa(lp5239
I766
aI356
aa(lp5240
I758
aI357
aa(lp5241
I747
aI363
aa(lp5242
I742
aI364
aa(lp5243
I733
aI368
aa(lp5244
I729
aI371
aa(lp5245
I720
aI374
aa(lp5246
I716
aI376
aa(lp5247
I706
aI382
aa(lp5248
I702
aI385
aa(lp5249
I698
aI389
aa(lp5250
I695
aI393
aa(lp5251
I693
aI397
aa(lp5252
I691
aI403
aa(lp5253
I691
aI407
aa(lp5254
I690
aI413
aa(lp5255
I690
aI417
aa(lp5256
I690
aI423
aa(lp5257
I690
aI426
aa(lp5258
I690
aI430
aa(lp5259
I690
aI433
aa(lp5260
I690
aI437
aa(lp5261
I690
aI441
aa(lp5262
I690
aI445
aa(lp5263
I690
aI451
aa(lp5264
I690
aI457
aa(lp5265
I690
aI461
aa(lp5266
I694
aI471
aa(lp5267
I699
aI484
aa(lp5268
I700
aI487
aa(lp5269
I703
aI491
aa(lp5270
I705
aI495
aa(lp5271
I706
aI499
aa(lp5272
I711
aI509
aa(lp5273
I714
aI515
aa(lp5274
I715
aI521
aa(lp5275
I717
aI525
aa(lp5276
I719
aI529
aa(lp5277
I722
aI535
aa(lp5278
I724
aI539
aa(lp5279
I725
aI546
aa(lp5280
I727
aI549
aa(lp5281
I729
aI553
aa(lp5282
I730
aI557
aa(lp5283
I732
aI563
aa(lp5284
I733
aI570
aa(lp5285
I734
aI576
aa(lp5286
I736
aI583
aa(lp5287
I738
aI593
aa(lp5288
I739
aI599
aa(lp5289
I739
aI603
aa(lp5290
I739
aI607
aa(lp5291
I739
aI611
aa(lp5292
I739
aI617
aa(lp5293
I739
aI621
aa(lp5294
I739
aI629
aa(lp5295
I739
aI632
aa(lp5296
I739
aI640
aa(lp5297
I739
aI648
aa(lp5298
I739
aI656
aa(lp5299
I739
aI663
aa(lp5300
I738
aI667
aa(lp5301
I733
aI673
aa(lp5302
I729
aI677
aa(lp5303
I719
aI686
aa(lp5304
I708
aI693
aa(lp5305
I698
aI701
aa(lp5306
I688
aI709
aa(lp5307
I679
aI716
aa(lp5308
I656
aI731
aa(lp5309
I650
aI735
aa(lp5310
I631
aI746
aa(lp5311
I600
aI756
aa(lp5312
I585
aI761
aa(lp5313
I549
aI767
aa(lp5314
I542
aI769
aa(lp5315
I522
aI772
aa(lp5316
I509
aI774
aa(lp5317
I496
aI774
aa(lp5318
I483
aI774
aa(lp5319
I468
aI774
aa(lp5320
I455
aI774
aa(lp5321
I442
aI774
aa(lp5322
I432
aI774
aa(lp5323
I418
aI774
aa(lp5324
I406
aI774
aa(lp5325
I394
aI774
aa(lp5326
I382
aI774
aa(lp5327
I373
aI774
aa(lp5328
I363
aI774
aa(lp5329
I354
aI774
aa(lp5330
I349
aI774
aa(lp5331
I339
aI767
aa(lp5332
I330
aI764
aa(lp5333
I325
aI759
aa(lp5334
I317
aI755
aa(lp5335
I313
aI751
aa(lp5336
I305
aI745
aa(lp5337
I301
aI740
aa(lp5338
I293
aI736
aa(lp5339
I286
aI733
aa(lp5340
I281
aI727
aa(lp5341
I276
aI724
aa(lp5342
I272
aI719
aa(lp5343
I265
aI716
aa(lp5344
I260
aI710
aa(lp5345
I254
aI705
aa(lp5346
I250
aI699
aa(lp5347
I246
aI693
aa(lp5348
I243
aI685
aa(lp5349
I240
aI676
aa(lp5350
I237
aI669
aa(lp5351
I234
aI663
aa(lp5352
I231
aI656
aa(lp5353
I228
aI650
aa(lp5354
I225
aI642
aa(lp5355
I223
aI633
aa(lp5356
I220
aI624
aa(lp5357
I219
aI615
aa(lp5358
I214
aI605
aa(lp5359
I211
aI595
aa(lp5360
I209
aI585
aa(lp5361
I206
aI578
aa(lp5362
I202
aI570
aa(lp5363
I200
aI562
aa(lp5364
I197
aI551
aa(lp5365
I194
aI541
aa(lp5366
I190
aI531
aa(lp5367
I185
aI520
aa(lp5368
I181
aI513
aa(lp5369
I178
aI506
aa(lp5370
I174
aI496
aa(lp5371
I171
aI491
aa(lp5372
I166
aI482
aa(lp5373
I163
aI474
aa(lp5374
I154
aI461
aa(lp5375
I150
aI453
aa(lp5376
I146
aI446
aa(lp5377
I143
aI440
aa(lp5378
I140
aI433
aa(lp5379
I138
aI429
aa(lp5380
I135
aI424
aa(lp5381
I133
aI420
aa(lp5382
I130
aI416
aa(lp5383
I124
aI407
aa(lp5384
I122
aI403
aa(lp5385
I119
aI397
aa(lp5386
I117
aI394
aa(lp5387
I113
aI387
aa(lp5388
I110
aI382
aa(lp5389
I109
aI382
aa(lp5390
I103
aI369
aa(lp5391
I101
aI368
aa(lp5392
I98
aI362
aa(lp5393
I97
aI359
aa(lp5394
I93
aI353
aa(lp5395
I92
aI352
aa(lp5396
I91
aI348
aa(lp5397
I88
aI342
aa(lp5398
I87
aI342
aa(lp5399
I87
aI332
aa(lp5400
I87
aI330
aa(lp5401
I87
aI329
aa(lp5402
I87
aI325
aa(lp5403
I87
aI323
aa(lp5404
I87
aI322
aa(lp5405
I91
aI322
aa(lp5406
I96
aI322
aa(lp5407
I98
aI322
aa(lp5408
I102
aI322
aa(lp5409
I106
aI323
aa(lp5410
I108
aI327
aa(lp5411
I112
aI329
aa(lp5412
I116
aI332
aa(lp5413
I120
aI334
aa(lp5414
I123
aI338
aa(lp5415
I127
aI342
aa(lp5416
I132
aI346
aa(lp5417
I135
aI348
aa(lp5418
I138
aI352
aa(lp5419
I141
aI356
aa(lp5420
I148
aI364
aa(lp5421
I151
aI367
aa(lp5422
I156
aI371
aa(lp5423
I162
aI378
aa(lp5424
I165
aI385
aa(lp5425
I169
aI388
aa(lp5426
I171
aI392
aa(lp5427
I175
aI396
aa(lp5428
I177
aI400
aa(lp5429
I180
aI403
aa(lp5430
I182
aI410
aa(lp5431
I185
aI417
aa(lp5432
I186
aI424
aa(lp5433
I189
aI438
aa(lp5434
I189
aI445
aa(lp5435
I189
aI449
aa(lp5436
I189
aI460
aa(lp5437
I190
aI467
aa(lp5438
I190
aI488
aa(lp5439
I190
aI498
aa(lp5440
I190
aI509
aa(lp5441
I190
aI519
aa(lp5442
I190
aI529
aa(lp5443
I190
aI540
aa(lp5444
I190
aI545
aa(lp5445
I190
aI555
aa(lp5446
I190
aI565
aa(lp5447
I190
aI570
aa(lp5448
I190
aI582
aa(lp5449
I190
aI590
aa(lp5450
I192
aI599
aa(lp5451
I192
aI604
aa(lp5452
I194
aI614
aa(lp5453
I195
aI623
aa(lp5454
I198
aI632
aa(lp5455
I198
aI639
aa(lp5456
I200
aI644
aa(lp5457
I201
aI652
aa(lp5458
I202
aI656
aa(lp5459
I204
aI663
aa(lp5460
I205
aI667
aa(lp5461
I208
aI671
aa(lp5462
I214
aI678
aa(lp5463
I218
aI680
aa(lp5464
I221
aI683
aa(lp5465
I224
aI685
aa(lp5466
I227
aI689
aa(lp5467
I231
aI692
aa(lp5468
I236
aI696
aa(lp5469
I240
aI698
aa(lp5470
I245
aI702
aa(lp5471
I248
aI704
aa(lp5472
I252
aI707
aa(lp5473
I262
aI709
aa(lp5474
I269
aI711
aa(lp5475
I275
aI711
aa(lp5476
I281
aI711
aa(lp5477
I288
aI711
aa(lp5478
I294
aI711
aa(lp5479
I301
aI711
aa(lp5480
I312
aI711
aa(lp5481
I317
aI711
aa(lp5482
I326
aI711
aa(lp5483
I337
aI711
aa(lp5484
I345
aI709
aa(lp5485
I354
aI705
aa(lp5486
I362
aI701
aa(lp5487
I370
aI698
aa(lp5488
I380
aI692
aa(lp5489
I388
aI688
aa(lp5490
I397
aI681
aa(lp5491
I412
aI669
aa(lp5492
I423
aI660
aa(lp5493
I432
aI653
aa(lp5494
I444
aI645
aa(lp5495
I453
aI636
aa(lp5496
I463
aI628
aa(lp5497
I470
aI623
aa(lp5498
I480
aI615
aa(lp5499
I489
aI608
aa(lp5500
I508
aI590
aa(lp5501
I520
aI579
aa(lp5502
I530
aI569
aa(lp5503
I542
aI557
aa(lp5504
I552
aI548
aa(lp5505
I565
aI538
aa(lp5506
I575
aI530
aa(lp5507
I588
aI519
aa(lp5508
I598
aI513
aa(lp5509
I610
aI505
aa(lp5510
I621
aI498
aa(lp5511
I633
aI490
aa(lp5512
I646
aI484
aa(lp5513
I659
aI478
aa(lp5514
I667
aI473
aa(lp5515
I677
aI469
aa(lp5516
I685
aI465
aa(lp5517
I695
aI461
aa(lp5518
I704
aI461
aa(lp5519
I712
aI460
aa(lp5520
I720
aI456
aa(lp5521
I729
aI454
aa(lp5522
I738
aI454
aa(lp5523
I744
aI454
aa(lp5524
I750
aI454
aa(lp5525
I757
aI454
aa(lp5526
I761
aI454
aa(lp5527
I765
aI454
aa(lp5528
I769
aI454
aa(lp5529
I772
aI454
aa(lp5530
I774
aI454
aa(lp5531
I778
aI454
aa(lp5532
I780
aI454
aa(lp5533
I783
aI457
aa(lp5534
I785
aI461
aa(lp5535
I788
aI467
aa(lp5536
I791
aI471
aa(lp5537
I793
aI475
aa(lp5538
I796
aI481
aa(lp5539
I798
aI488
aa(lp5540
I801
aI492
aa(lp5541
I804
aI500
aa(lp5542
I805
aI504
aa(lp5543
I807
aI512
aa(lp5544
I807
aI519
aa(lp5545
I807
aI526
aa(lp5546
I807
aI533
aa(lp5547
I807
aI538
aa(lp5548
I807
aI545
aa(lp5549
I807
aI549
aa(lp5550
I807
aI555
aa(lp5551
I807
aI559
aa(lp5552
I807
aI568
aa(lp5553
I807
aI572
aa(lp5554
I807
aI580
aa(lp5555
I807
aI584
aa(lp5556
I807
aI592
aa(lp5557
I807
aI596
aa(lp5558
I807
aI600
aa(lp5559
I807
aI604
aa(lp5560
I807
aI607
aa(lp5561
I807
aI611
aa(lp5562
I807
aI615
aa(lp5563
I805
aI621
aa(lp5564
I803
aI625
aa(lp5565
I800
aI629
aa(lp5566
I798
aI633
aa(lp5567
I794
aI636
aa(lp5568
I790
aI640
aa(lp5569
I786
aI643
aa(lp5570
I783
aI645
aa(lp5571
I776
aI649
aa(lp5572
I773
aI651
aa(lp5573
I765
aI654
aa(lp5574
I757
aI657
aa(lp5575
I751
aI659
aa(lp5576
I747
aI660
aa(lp5577
I741
aI663
aa(lp5578
I737
aI664
aa(lp5579
I730
aI664
aa(lp5580
I723
aI665
aa(lp5581
I717
aI665
aa(lp5582
I710
aI665
aa(lp5583
I706
aI665
aa(lp5584
I696
aI665
aa(lp5585
I692
aI665
aa(lp5586
I684
aI665
aa(lp5587
I677
aI665
aa(lp5588
I670
aI665
aa(lp5589
I662
aI665
aa(lp5590
I654
aI665
aa(lp5591
I646
aI665
aa(lp5592
I635
aI665
aa(lp5593
I627
aI665
aa(lp5594
I618
aI665
aa(lp5595
I608
aI664
aa(lp5596
I598
aI657
aa(lp5597
I587
aI652
aa(lp5598
I578
aI647
aa(lp5599
I568
aI640
aa(lp5600
I555
aI635
aa(lp5601
I544
aI628
aa(lp5602
I535
aI624
aa(lp5603
I524
aI618
aa(lp5604
I513
aI615
aa(lp5605
I501
aI611
aa(lp5606
I492
aI609
aa(lp5607
I481
aI605
aa(lp5608
I469
aI601
aa(lp5609
I459
aI599
aa(lp5610
I450
aI598
aa(lp5611
I444
aI594
aa(lp5612
I433
aI590
aa(lp5613
I424
aI588
aa(lp5614
I419
aI587
aa(lp5615
I409
aI587
aa(lp5616
I404
aI585
aa(lp5617
I390
aI583
aa(lp5618
I382
aI583
aa(lp5619
I378
aI583
aa(lp5620
I373
aI583
aa(lp5621
I370
aI583
aa(lp5622
I366
aI583
aa(lp5623
I359
aI583
aa(lp5624
I356
aI583
aa(lp5625
I346
aI583
aa(lp5626
I342
aI583
aa(lp5627
I332
aI583
aa(lp5628
I328
aI585
aa(lp5629
I324
aI587
aa(lp5630
I320
aI590
aa(lp5631
I317
aI592
aa(lp5632
I313
aI596
aa(lp5633
I309
aI600
aa(lp5634
I307
aI602
aa(lp5635
I304
aI605
aa(lp5636
I301
aI607
aa(lp5637
I299
aI610
aa(lp5638
I296
aI612
aa(lp5639
I295
aI615
aa(lp5640
I293
aI619
aa(lp5641
I291
aI621
aa(lp5642
I289
aI624
aa(lp5643
I288
aI626
aa(lp5644
I286
aI630
aa(lp5645
I285
aI634
aa(lp5646
I284
aI636
aa(lp5647
I283
aI639
aa(lp5648
I281
aI641
aa(lp5649
I280
aI644
aa(lp5650
I279
aI648
aa(lp5651
I279
aI650
aa(lp5652
I279
aI653
aa(lp5653
I279
aI655
aa(lp5654
I279
aI658
aa(lp5655
I279
aI660
aa(lp5656
I279
aI663
aa(lp5657
I279
aI665
aa(lp5658
I279
aI668
aa(lp5659
I279
aI670
aa(lp5660
I279
aI674
aa(lp5661
I279
aI679
aa(lp5662
I279
aI682
aa(lp5663
I279
aI683
aa(lp5664
I279
aI685
aa(lp5665
I279
aI688
aa(lp5666
I279
aI690
aa(lp5667
I279
aI693
aa(lp5668
I279
aI695
aa(lp5669
I279
aI697
aa(lp5670
I279
aI699
aa(lp5671
I281
aI702
aa(lp5672
I284
aI706
aa(lp5673
I286
aI708
aa(lp5674
I289
aI711
aa(lp5675
I290
aI713
aa(lp5676
I294
aI719
aa(lp5677
I296
aI722
aa(lp5678
I298
aI724
aa(lp5679
I299
aI728
aa(lp5680
I300
aI731
aa(lp5681
I301
aI733
aa(lp5682
I303
aI736
aa(lp5683
I303
aI738
aa(lp5684
I303
aI741
aa(lp5685
I303
aI745
aa(lp5686
I304
aI747
aa(lp5687
I304
aI750
aa(lp5688
I304
aI752
aa(lp5689
I304
aI756
aa(lp5690
I304
aI757
aa(lp5691
I304
aI761
aa(lp5692
I304
aI763
aa(lp5693
I304
aI766
aa(lp5694
I304
aI770
aa(lp5695
I304
aI774
aa(lp5696
I304
aI777
aa(lp5697
I304
aI784
aa(lp5698
I304
aI787
aa(lp5699
I304
aI791
aa(lp5700
I304
aI797
aa(lp5701
I304
aI801
aa(lp5702
I304
aI805
aa(lp5703
I304
aI809
aa(lp5704
I301
aI813
aa(lp5705
I299
aI816
aa(lp5706
I298
aI820
aa(lp5707
I295
aI824
aa(lp5708
I294
aI828
aa(lp5709
I291
aI834
aa(lp5710
I289
aI840
aa(lp5711
I288
aI844
aa(lp5712
I286
aI848
aa(lp5713
I285
aI852
aa(lp5714
I284
aI855
aa(lp5715
I283
aI859
aa(lp5716
I280
aI863
aa(lp5717
I278
aI869
aa(lp5718
I276
aI872
aa(lp5719
I275
aI874
aa(lp5720
I274
aI877
aa(lp5721
I273
aI879
aa(lp5722
I271
aI881
aa(lp5723
I270
aI884
aa(lp5724
I269
aI888
aa(lp5725
I269
aI889
aa(lp5726
I267
aI893
aa(lp5727
I266
aI896
aa(lp5728
I265
aI899
aa(lp5729
I264
aI901
aa(lp5730
I261
aI904
aa(lp5731
I257
aI907
aa(lp5732
I255
aI911
aa(lp5733
I252
aI913
aa(lp5734
I250
aI916
aa(lp5735
I247
aI918
aa(lp5736
I246
aI920
aa(lp5737
I244
aI922
aa(lp5738
I242
aI923
aa(lp5739
I240
aI926
aa(lp5740
I239
aI927
aa(lp5741
I236
aI927
aa(lp5742
I232
aI928
aa(lp5743
I230
aI930
aa(lp5744
I228
aI930
aa(lp5745
I227
aI930
aa(lp5746
I225
aI930
aa(lp5747
I223
aI930
aa(lp5748
I221
aI930
aa(lp5749
I218
aI930
aa(lp5750
I217
aI930
aa(lp5751
I216
aI930
aa(lp5752
I213
aI930
aa(lp5753
I211
aI930
aa(lp5754
I208
aI930
aa(lp5755
I207
aI930
aa(lp5756
I205
aI930
aa(lp5757
I203
aI930
aa(lp5758
I202
aI930
aa(lp5759
I200
aI927
aa(lp5760
I197
aI923
aa(lp5761
I196
aI921
aa(lp5762
I193
aI917
aa(lp5763
I192
aI912
aa(lp5764
I191
aI908
aa(lp5765
I188
aI903
aa(lp5766
I188
aI901
aa(lp5767
I188
aI897
aa(lp5768
I187
aI894
aa(lp5769
I186
aI888
aa(lp5770
I186
aI883
aa(lp5771
I186
aI879
aa(lp5772
I186
aI876
aa(lp5773
I186
aI872
aa(lp5774
I186
aI865
aa(lp5775
I186
aI860
aa(lp5776
I186
aI857
aa(lp5777
I186
aI850
aa(lp5778
I186
aI845
aa(lp5779
I186
aI840
aa(lp5780
I186
aI836
aa(lp5781
I186
aI830
aa(lp5782
I186
aI824
aa(lp5783
I186
aI811
aa(lp5784
I186
aI805
aa(lp5785
I186
aI800
aa(lp5786
I186
aI792
aa(lp5787
I186
aI785
aa(lp5788
I186
aI780
aa(lp5789
I186
aI775
aa(lp5790
I186
aI768
aa(lp5791
I186
aI759
aa(lp5792
I186
aI751
aa(lp5793
I186
aI742
aa(lp5794
I186
aI734
aa(lp5795
I186
aI722
aa(lp5796
I186
aI714
aa(lp5797
I186
aI701
aa(lp5798
I186
aI691
aa(lp5799
I186
aI677
aa(lp5800
I186
aI667
aa(lp5801
I186
aI649
aa(lp5802
I186
aI639
aa(lp5803
I186
aI620
aa(lp5804
I186
aI612
aa(lp5805
I186
aI596
aa(lp5806
I186
aI568
aa(lp5807
I186
aI555
aa(lp5808
I186
aI538
aa(lp5809
I186
aI528
aa(lp5810
I186
aI511
aa(lp5811
I186
aI501
aa(lp5812
I186
aI484
aa(lp5813
I186
aI471
aa(lp5814
I186
aI454
aa(lp5815
I186
aI446
aa(lp5816
I186
aI434
aa(lp5817
I186
aI426
aa(lp5818
I186
aI415
aa(lp5819
I186
aI403
aa(lp5820
I176
aI385
aa(lp5821
I173
aI374
aa(lp5822
I167
aI365
aa(lp5823
I164
aI354
aa(lp5824
I160
aI347
aa(lp5825
I155
aI340
aa(lp5826
I150
aI332
aa(lp5827
I147
aI325
aa(lp5828
I142
aI316
aa(lp5829
I139
aI313
aa(lp5830
I136
aI308
aa(lp5831
I131
aI300
aa(lp5832
I128
aI297
aa(lp5833
I123
aI291
aa(lp5834
I122
aI291
aa(lp5835
I118
aI283
aa(lp5836
I117
aI280
aa(lp5837
I115
aI278
aa(lp5838
I113
aI275
aa(lp5839
I110
aI274
aa(lp5840
I109
aI271
aa(lp5841
I108
aI271
aa(lp5842
I105
aI269
aa(lp5843
I103
aI266
aa(lp5844
I100
aI265
aa(lp5845
I98
aI264
aa(lp5846
I96
aI264
aa(lp5847
I94
aI263
aa(lp5848
I93
aI261
aa(lp5849
I91
aI260
aa(lp5850
I90
aI259
aa(lp5851
I89
aI259
aa(lp5852
I88
aI259
aa(lp5853
I86
aI258
aa(lp5854
I85
aI256
aa(lp5855
I85
aI255
aa(lp5856
I89
aI255
aa(lp5857
I93
aI254
aa(lp5858
I102
aI250
aa(lp5859
I105
aI249
aa(lp5860
I110
aI247
aa(lp5861
I114
aI246
aa(lp5862
I118
aI244
aa(lp5863
I122
aI242
aa(lp5864
I127
aI241
aa(lp5865
I130
aI239
aa(lp5866
I137
aI236
aa(lp5867
I143
aI234
aa(lp5868
I148
aI232
aa(lp5869
I152
aI232
aa(lp5870
I156
aI231
aa(lp5871
I164
aI229
aa(lp5872
I168
aI227
aa(lp5873
I176
aI226
aa(lp5874
I180
aI226
aa(lp5875
I182
aI226
aa(lp5876
I186
aI225
aa(lp5877
I188
aI225
aa(lp5878
I191
aI225
aa(lp5879
I193
aI225
aa(lp5880
I197
aI225
aa(lp5881
I198
aI225
aa(lp5882
I202
aI224
aa(lp5883
I205
aI224
aa(lp5884
I210
aI224
aa(lp5885
I212
aI224
aa(lp5886
I216
aI224
aa(lp5887
I219
aI224
aa(lp5888
I222
aI222
aa(lp5889
I226
aI222
aa(lp5890
I229
aI222
aa(lp5891
I231
aI222
aa(lp5892
I234
aI222
aa(lp5893
I237
aI222
aa(lp5894
I240
aI222
aa(lp5895
I243
aI222
aa(lp5896
I246
aI222
aa(lp5897
I250
aI222
aa(lp5898
I255
aI222
aa(lp5899
I264
aI222
aa(lp5900
I270
aI222
aa(lp5901
I275
aI222
aa(lp5902
I279
aI221
aa(lp5903
I284
aI221
aa(lp5904
I290
aI221
aa(lp5905
I294
aI221
aa(lp5906
I299
aI221
aa(lp5907
I304
aI221
aa(lp5908
I308
aI221
aa(lp5909
I319
aI221
aa(lp5910
I324
aI221
aa(lp5911
I331
aI221
aa(lp5912
I336
aI221
aa(lp5913
I341
aI220
aa(lp5914
I347
aI220
aa(lp5915
I352
aI220
aa(lp5916
I357
aI220
aa(lp5917
I361
aI220
aa(lp5918
I366
aI220
aa(lp5919
I370
aI220
aa(lp5920
I373
aI220
aa(lp5921
I380
aI220
aa(lp5922
I384
aI220
aa(lp5923
I386
aI220
aa(lp5924
I391
aI220
aa(lp5925
I394
aI220
aa(lp5926
I397
aI220
aa(lp5927
I401
aI220
aa(lp5928
I404
aI220
aa(lp5929
I406
aI220
aa(lp5930
I410
aI220
aa(lp5931
I412
aI220
aa(lp5932
I415
aI220
aa(lp5933
I419
aI221
aa(lp5934
I424
aI226
aa(lp5935
I431
aI231
aa(lp5936
I434
aI234
aa(lp5937
I438
aI236
aa(lp5938
I441
aI239
aa(lp5939
I445
aI241
aa(lp5940
I448
aI244
aa(lp5941
I450
aI246
aa(lp5942
I453
aI249
aa(lp5943
I455
aI253
aa(lp5944
I459
aI255
aa(lp5945
I462
aI259
aa(lp5946
I464
aI263
aa(lp5947
I467
aI266
aa(lp5948
I469
aI273
aa(lp5949
I470
aI275
aa(lp5950
I472
aI279
aa(lp5951
I473
aI283
aa(lp5952
I474
aI285
aa(lp5953
I475
aI289
aa(lp5954
I478
aI293
aa(lp5955
I479
aI297
aa(lp5956
I480
aI300
aa(lp5957
I482
aI304
aa(lp5958
I484
aI312
aa(lp5959
I484
aI318
aa(lp5960
I486
aI322
aa(lp5961
I486
aI329
aa(lp5962
I486
aI333
aa(lp5963
I486
aI337
aa(lp5964
I486
aI343
aa(lp5965
I486
aI347
aa(lp5966
I486
aI351
aa(lp5967
I486
aI357
aa(lp5968
I486
aI361
aa(lp5969
I486
aI365
aa(lp5970
I486
aI368
aa(lp5971
I486
aI378
aa(lp5972
I486
aI391
aa(lp5973
I486
aI395
aa(lp5974
I486
aI399
aa(lp5975
I486
aI405
aa(lp5976
I486
aI411
aa(lp5977
I486
aI415
aa(lp5978
I486
aI419
aa(lp5979
I486
aI422
aa(lp5980
I486
aI426
aa(lp5981
I486
aI430
aa(lp5982
I486
aI434
aa(lp5983
I486
aI444
aa(lp5984
I486
aI448
aa(lp5985
I486
aI451
aa(lp5986
I486
aI458
aa(lp5987
I486
aI461
aa(lp5988
I486
aI465
aa(lp5989
I486
aI469
aa(lp5990
I486
aI475
aa(lp5991
I486
aI479
aa(lp5992
I486
aI483
aa(lp5993
I486
aI487
aa(lp5994
I486
aI490
aa(lp5995
I486
aI497
aa(lp5996
I486
aI504
aa(lp5997
I486
aI508
aa(lp5998
I487
aI514
aa(lp5999
I487
aI517
aa(lp6000
I487
aI521
aa(lp6001
I488
aI524
aa(lp6002
I489
aI528
aa(lp6003
I491
aI532
aa(lp6004
I492
aI536
aa(lp6005
I494
aI538
aa(lp6006
I498
aI546
aa(lp6007
I501
aI553
aa(lp6008
I502
aI556
aa(lp6009
I504
aI562
aa(lp6010
I507
aI565
aa(lp6011
I508
aI569
aa(lp6012
I509
aI571
aa(lp6013
I513
aI575
aa(lp6014
I514
aI579
aa(lp6015
I517
aI582
aa(lp6016
I518
aI586
aa(lp6017
I521
aI590
aa(lp6018
I522
aI594
aa(lp6019
I525
aI597
aa(lp6020
I528
aI605
aa(lp6021
I530
aI609
aa(lp6022
I530
aI613
aa(lp6023
I530
aI615
aa(lp6024
I531
aI619
aa(lp6025
I531
aI623
aa(lp6026
I531
aI626
aa(lp6027
I531
aI630
aa(lp6028
I531
aI634
aa(lp6029
I531
aI638
aa(lp6030
I531
aI640
aa(lp6031
I532
aI647
aa(lp6032
I532
aI649
aa(lp6033
I532
aI653
aa(lp6034
I532
aI659
aa(lp6035
I532
aI662
aa(lp6036
I532
aI664
aa(lp6037
I532
aI667
aa(lp6038
I532
aI669
aa(lp6039
I532
aI673
aa(lp6040
I532
aI676
aa(lp6041
I532
aI678
aa(lp6042
I532
aI681
aa(lp6043
I530
aI684
aa(lp6044
I527
aI687
aa(lp6045
I525
aI689
aa(lp6046
I522
aI692
aa(lp6047
I520
aI694
aa(lp6048
I517
aI697
aa(lp6049
I513
aI699
aa(lp6050
I511
aI702
aa(lp6051
I507
aI703
aa(lp6052
I504
aI704
aa(lp6053
I502
aI706
aa(lp6054
I501
aI707
aa(lp6055
I498
aI707
aa(lp6056
I496
aI707
aa(lp6057
I493
aI707
aa(lp6058
I492
aI707
aa(lp6059
I491
aI707
aa(lp6060
I487
aI707
aa(lp6061
I484
aI707
aa(lp6062
I482
aI707
aa(lp6063
I480
aI707
aa(lp6064
I479
aI707
aa(lp6065
I477
aI707
aa(lp6066
I475
aI707
aa(lp6067
I474
aI703
aa(lp6068
I473
aI698
aa(lp6069
I473
aI693
aa(lp6070
I472
aI689
aa(lp6071
I472
aI679
aa(lp6072
I472
aI674
aa(lp6073
I472
aI668
aa(lp6074
I472
aI662
aa(lp6075
I472
aI655
aa(lp6076
I472
aI649
aa(lp6077
I472
aI642
aa(lp6078
I472
aI634
aa(lp6079
I472
aI626
aa(lp6080
I476
aI618
aa(lp6081
I480
aI609
aa(lp6082
I485
aI600
aa(lp6083
I489
aI591
aa(lp6084
I494
aI582
aa(lp6085
I501
aI573
aa(lp6086
I513
aI553
aa(lp6087
I525
aI533
aa(lp6088
I533
aI518
aa(lp6089
I537
aI508
aa(lp6090
I540
aI500
aa(lp6091
I546
aI491
aa(lp6092
I550
aI479
aa(lp6093
I554
aI471
aa(lp6094
I558
aI462
aa(lp6095
I562
aI452
aa(lp6096
I569
aI436
aa(lp6097
I572
aI431
aa(lp6098
I576
aI422
aa(lp6099
I579
aI417
aa(lp6100
I582
aI411
aa(lp6101
I586
aI404
aa(lp6102
I589
aI398
aa(lp6103
I592
aI392
aa(lp6104
I594
aI388
aa(lp6105
I599
aI381
aa(lp6106
I602
aI375
aa(lp6107
I606
aI368
aa(lp6108
I610
aI361
aa(lp6109
I613
aI355
aa(lp6110
I617
aI348
aa(lp6111
I622
aI340
aa(lp6112
I625
aI335
aa(lp6113
I629
aI328
aa(lp6114
I633
aI320
aa(lp6115
I637
aI314
aa(lp6116
I638
aI310
aa(lp6117
I641
aI304
aa(lp6118
I643
aI298
aa(lp6119
I644
aI293
aa(lp6120
I645
aI287
aa(lp6121
I647
aI282
aa(lp6122
I648
aI277
aa(lp6123
I650
aI273
aa(lp6124
I652
aI264
aa(lp6125
I654
aI259
aa(lp6126
I654
aI257
aa(lp6127
I655
aI253
aa(lp6128
I655
aI252
aa(lp6129
I655
aI248
aa(lp6130
I655
aI245
aa(lp6131
I655
aI242
aa(lp6132
I655
aI239
aa(lp6133
I655
aI237
aa(lp6134
I655
aI234
aa(lp6135
I655
aI230
aa(lp6136
I655
aI229
aa(lp6137
I655
aI226
aa(lp6138
I655
aI223
aa(lp6139
I655
aI221
aa(lp6140
I655
aI220
aa(lp6141
I655
aI219
aa(lp6142
I655
aI218
aa(lp6143
I655
aI216
aa(lp6144
I655
aI215
aa(lp6145
I652
aI213
aa(lp6146
I650
aI211
aa(lp6147
I646
aI210
aa(lp6148
I642
aI209
aa(lp6149
I640
aI208
aa(lp6150
I636
aI208
aa(lp6151
I632
aI205
aa(lp6152
I626
aI204
aa(lp6153
I618
aI203
aa(lp6154
I612
aI203
aa(lp6155
I608
aI203
aa(lp6156
I602
aI201
aa(lp6157
I596
aI201
aa(lp6158
I592
aI201
aa(lp6159
I586
aI201
aa(lp6160
I582
aI200
aa(lp6161
I575
aI200
aa(lp6162
I572
aI200
aa(lp6163
I565
aI200
aa(lp6164
I562
aI200
aa(lp6165
I552
aI200
aa(lp6166
I548
aI200
aa(lp6167
I544
aI200
aa(lp6168
I540
aI200
aa(lp6169
I536
aI200
aa(lp6170
I533
aI200
aa(lp6171
I529
aI200
aa(lp6172
I526
aI200
aa(lp6173
I520
aI200
aa(lp6174
I516
aI200
aa(lp6175
I512
aI203
aa(lp6176
I510
aI204
aa(lp6177
I507
aI206
aa(lp6178
I506
aI208
aa(lp6179
I504
aI210
aa(lp6180
I502
aI211
aa(lp6181
I500
aI214
aa(lp6182
I499
aI215
aa(lp6183
I497
aI216
aa(lp6184
I496
aI219
aa(lp6185
I495
aI221
aa(lp6186
I495
aI223
aa(lp6187
I495
aI225
aa(lp6188
I495
aI226
aa(lp6189
I495
aI230
aa(lp6190
I495
aI232
aa(lp6191
I495
aI234
aa(lp6192
I495
aI237
aa(lp6193
I495
aI238
aa(lp6194
I495
aI240
aa(lp6195
I495
aI242
aa(lp6196
I495
aI244
aa(lp6197
I495
aI247
aa(lp6198
I495
aI248
aa(lp6199
I495
aI250
aa(lp6200
I495
aI253
aa(lp6201
I495
aI254
aa(lp6202
I495
aI257
aa(lp6203
I499
aI259
aa(lp6204
I502
aI262
aa(lp6205
I506
aI264
aa(lp6206
I511
aI267
aa(lp6207
I515
aI268
aa(lp6208
I519
aI269
aa(lp6209
I524
aI272
aa(lp6210
I529
aI274
aa(lp6211
I534
aI277
aa(lp6212
I539
aI279
aa(lp6213
I544
aI279
aa(lp6214
I549
aI282
aa(lp6215
I555
aI284
aa(lp6216
I560
aI286
aa(lp6217
I565
aI287
aa(lp6218
I572
aI288
aa(lp6219
I575
aI289
aa(lp6220
I582
aI292
aa(lp6221
I587
aI295
aa(lp6222
I593
aI296
aa(lp6223
I597
aI297
aa(lp6224
I603
aI300
aa(lp6225
I608
aI302
aa(lp6226
I615
aI304
aa(lp6227
I619
aI306
aa(lp6228
I624
aI308
aa(lp6229
I629
aI310
aa(lp6230
I634
aI313
aa(lp6231
I640
aI314
aa(lp6232
I647
aI318
aa(lp6233
I654
aI321
aa(lp6234
I658
aI322
aa(lp6235
I663
aI325
aa(lp6236
I667
aI326
aa(lp6237
I670
aI328
aa(lp6238
I674
aI330
aa(lp6239
I677
aI332
aa(lp6240
I680
aI335
aa(lp6241
I682
aI336
aa(lp6242
I684
aI337
aa(lp6243
I687
aI340
aa(lp6244
I689
aI341
aa(lp6245
I690
aI342
aa(lp6246
I693
aI345
aa(lp6247
I694
aI346
aa(lp6248
I695
aI349
aa(lp6249
I697
aI350
aa(lp6250
I699
aI351
aa(lp6251
I701
aI354
aa(lp6252
I702
aI356
aa(lp6253
I704
aI359
aa(lp6254
I707
aI361
aa(lp6255
I708
aI365
aa(lp6256
I709
aI367
aa(lp6257
I711
aI370
aa(lp6258
I712
aI374
aa(lp6259
I713
aI377
aa(lp6260
I713
aI381
aa(lp6261
I714
aI384
aa(lp6262
I717
aI388
aa(lp6263
I718
aI391
aa(lp6264
I719
aI395
aa(lp6265
I721
aI401
aa(lp6266
I721
aI404
aa(lp6267
I722
aI408
aa(lp6268
I723
aI411
aa(lp6269
I723
aI415
aa(lp6270
I724
aI427
aa(lp6271
I724
aI433
aa(lp6272
I724
aI437
aa(lp6273
I724
aI443
aa(lp6274
I726
aI447
aa(lp6275
I726
aI453
aa(lp6276
I727
aI457
aa(lp6277
I727
aI461
aa(lp6278
I727
aI467
aa(lp6279
I727
aI471
aa(lp6280
I727
aI474
aa(lp6281
I727
aI478
aa(lp6282
I727
aI484
aa(lp6283
I727
aI491
aa(lp6284
I727
aI495
aa(lp6285
I727
aI501
aa(lp6286
I727
aI505
aa(lp6287
I727
aI508
aa(lp6288
I727
aI515
aa(lp6289
I727
aI518
aa(lp6290
I727
aI522
aa(lp6291
I727
aI525
aa(lp6292
I727
aI529
aa(lp6293
I727
aI535
aa(lp6294
I727
aI539
aa(lp6295
I727
aI542
aa(lp6296
I727
aI546
aa(lp6297
I727
aI550
aa(lp6298
I727
aI554
aa(lp6299
I727
aI558
aa(lp6300
I727
aI565
aa(lp6301
I727
aI569
aa(lp6302
I727
aI573
aa(lp6303
I727
aI576
aa(lp6304
I727
aI580
aa(lp6305
I727
aI581
aa(lp6306
I727
aI584
aa(lp6307
I727
aI585
aa(lp6308
I727
aI589
aa(lp6309
I727
aI591
aa(lp6310
I727
aI594
aa(lp6311
I727
aI598
aa(lp6312
I727
aI602
aa(lp6313
I727
aI604
aa(lp6314
I727
aI612
aa(lp6315
I727
aI619
aa(lp6316
I727
aI623
aa(lp6317
I724
aI629
aa(lp6318
I722
aI632
aa(lp6319
I719
aI634
aa(lp6320
I718
aI638
aa(lp6321
I717
aI639
aa(lp6322
I713
aI643
aa(lp6323
I711
aI647
aa(lp6324
I707
aI649
aa(lp6325
I704
aI652
aa(lp6326
I702
aI654
aa(lp6327
I698
aI657
aa(lp6328
I695
aI661
aa(lp6329
I692
aI665
aa(lp6330
I689
aI667
aa(lp6331
I687
aI670
aa(lp6332
I683
aI672
aa(lp6333
I680
aI675
aa(lp6334
I678
aI677
aa(lp6335
I675
aI680
aa(lp6336
I673
aI682
aa(lp6337
I668
aI686
aa(lp6338
I665
aI687
aa(lp6339
I664
aI688
aa(lp6340
I661
aI690
aa(lp6341
I659
aI691
aa(lp6342
I656
aI691
aa(lp6343
I654
aI692
aa(lp6344
I650
aI692
aa(lp6345
I645
aI693
aa(lp6346
I641
aI693
aa(lp6347
I638
aI695
aa(lp6348
I635
aI695
aa(lp6349
I631
aI695
aa(lp6350
I628
aI695
aa(lp6351
I621
aI695
aa(lp6352
I617
aI695
aa(lp6353
I609
aI695
aa(lp6354
I602
aI695
aa(lp6355
I598
aI695
aa(lp6356
I590
aI695
aa(lp6357
I586
aI695
aa(lp6358
I580
aI695
aa(lp6359
I576
aI695
aa(lp6360
I570
aI695
aa(lp6361
I566
aI695
aa(lp6362
I562
aI695
aa(lp6363
I558
aI695
aa(lp6364
I554
aI693
aa(lp6365
I551
aI691
aa(lp6366
I548
aI687
aa(lp6367
I544
aI682
aa(lp6368
I542
aI678
aa(lp6369
I539
aI675
aa(lp6370
I537
aI670
aa(lp6371
I536
aI666
aa(lp6372
I533
aI661
aa(lp6373
I532
aI654
aa(lp6374
I530
aI648
aa(lp6375
I529
aI634
aa(lp6376
I529
aI627
aa(lp6377
I526
aI621
aa(lp6378
I525
aI614
aa(lp6379
I525
aI608
aa(lp6380
I525
aI603
aa(lp6381
I524
aI596
aa(lp6382
I522
aI589
aa(lp6383
I522
aI582
aa(lp6384
I522
aI575
aa(lp6385
I521
aI566
aa(lp6386
I521
aI553
aa(lp6387
I521
aI549
aa(lp6388
I519
aI541
aa(lp6389
I518
aI533
aa(lp6390
I518
aI526
aa(lp6391
I516
aI518
aa(lp6392
I516
aI509
aa(lp6393
I515
aI501
aa(lp6394
I513
aI494
aa(lp6395
I512
aI484
aa(lp6396
I510
aI474
aa(lp6397
I508
aI466
aa(lp6398
I507
aI456
aa(lp6399
I503
aI450
aa(lp6400
I502
aI437
aa(lp6401
I500
aI430
aa(lp6402
I499
aI422
aa(lp6403
I494
aI412
aa(lp6404
I492
aI404
aa(lp6405
I489
aI396
aa(lp6406
I485
aI387
aa(lp6407
I482
aI381
aa(lp6408
I479
aI374
aa(lp6409
I474
aI366
aa(lp6410
I469
aI358
aa(lp6411
I466
aI351
aa(lp6412
I462
aI343
aa(lp6413
I458
aI335
aa(lp6414
I454
aI329
aa(lp6415
I451
aI323
aa(lp6416
I447
aI315
aa(lp6417
I443
aI308
aa(lp6418
I440
aI302
aa(lp6419
I436
aI295
aa(lp6420
I433
aI288
aa(lp6421
I428
aI284
aa(lp6422
I424
aI276
aa(lp6423
I421
aI272
aa(lp6424
I416
aI267
aa(lp6425
I412
aI263
aa(lp6426
I407
aI260
aa(lp6427
I400
aI253
aa(lp6428
I392
aI247
aa(lp6429
I388
aI243
aa(lp6430
I384
aI241
aa(lp6431
I380
aI238
aa(lp6432
I376
aI235
aa(lp6433
I372
aI233
aa(lp6434
I368
aI230
aa(lp6435
I366
aI228
aa(lp6436
I362
aI225
aa(lp6437
I358
aI223
aa(lp6438
I354
aI221
aa(lp6439
I351
aI220
aa(lp6440
I347
aI218
aa(lp6441
I343
aI216
aa(lp6442
I339
aI216
aa(lp6443
I333
aI215
aa(lp6444
I329
aI215
aa(lp6445
I325
aI214
aa(lp6446
I315
aI214
aa(lp6447
I312
aI214
aa(lp6448
I308
aI214
aa(lp6449
I304
aI214
aa(lp6450
I300
aI214
aa(lp6451
I294
aI214
aa(lp6452
I290
aI214
aa(lp6453
I286
aI214
aa(lp6454
I280
aI214
aa(lp6455
I276
aI214
aa(lp6456
I274
aI214
aa(lp6457
I270
aI214
aa(lp6458
I266
aI214
aa(lp6459
I262
aI214
aa(lp6460
I260
aI214
aa(lp6461
I256
aI215
aa(lp6462
I254
aI218
aa(lp6463
I249
aI223
aa(lp6464
I246
aI225
aa(lp6465
I244
aI228
aa(lp6466
I241
aI231
aa(lp6467
I238
aI234
aa(lp6468
I235
aI240
aa(lp6469
I233
aI243
aa(lp6470
I231
aI247
aa(lp6471
I228
aI254
aa(lp6472
I228
aI258
aa(lp6473
I227
aI262
aa(lp6474
I227
aI265
aa(lp6475
I226
aI269
aa(lp6476
I226
aI273
aa(lp6477
I225
aI277
aa(lp6478
I225
aI281
aa(lp6479
I225
aI291
aa(lp6480
I225
aI299
aa(lp6481
I225
aI303
aa(lp6482
I225
aI310
aa(lp6483
I225
aI313
aa(lp6484
I225
aI320
aa(lp6485
I225
aI327
aa(lp6486
I225
aI331
aa(lp6487
I225
aI341
aa(lp6488
I225
aI345
aa(lp6489
I225
aI349
aa(lp6490
I225
aI352
aa(lp6491
I225
aI356
aa(lp6492
I225
aI362
aa(lp6493
I225
aI366
aa(lp6494
I225
aI370
aa(lp6495
I226
aI372
aa(lp6496
I228
aI379
aa(lp6497
I230
aI381
aa(lp6498
I235
aI389
aa(lp6499
I236
aI393
aa(lp6500
I237
aI395
aa(lp6501
I240
aI399
aa(lp6502
I242
aI401
aa(lp6503
I245
aI405
aa(lp6504
I247
aI408
aa(lp6505
I250
aI411
aa(lp6506
I252
aI415
aa(lp6507
I255
aI418
aa(lp6508
I257
aI422
aa(lp6509
I259
aI425
aa(lp6510
I261
aI428
aa(lp6511
I265
aI432
aa(lp6512
I267
aI434
aa(lp6513
I270
aI438
aa(lp6514
I272
aI440
aa(lp6515
I276
aI443
aa(lp6516
I280
aI445
aa(lp6517
I283
aI448
aa(lp6518
I285
aI451
aa(lp6519
I288
aI452
aa(lp6520
I291
aI453
aa(lp6521
I295
aI454
aa(lp6522
I299
aI456
aa(lp6523
I303
aI457
aa(lp6524
I305
aI458
aa(lp6525
I310
aI461
aa(lp6526
I314
aI462
aa(lp6527
I318
aI463
aa(lp6528
I325
aI466
aa(lp6529
I330
aI468
aa(lp6530
I334
aI469
aa(lp6531
I338
aI471
aa(lp6532
I342
aI472
aa(lp6533
I346
aI474
aa(lp6534
I349
aI477
aa(lp6535
I354
aI479
aa(lp6536
I358
aI481
aa(lp6537
I362
aI483
aa(lp6538
I367
aI486
aa(lp6539
I369
aI490
aa(lp6540
I373
aI492
aa(lp6541
I377
aI496
aa(lp6542
I381
aI498
aa(lp6543
I383
aI502
aa(lp6544
I387
aI505
aa(lp6545
I390
aI508
aa(lp6546
I393
aI511
aa(lp6547
I396
aI515
aa(lp6548
I398
aI517
aa(lp6549
I401
aI520
aa(lp6550
I402
aI524
aa(lp6551
I403
aI527
aa(lp6552
I405
aI530
aa(lp6553
I407
aI534
aa(lp6554
I408
aI540
aa(lp6555
I410
aI546
aa(lp6556
I410
aI550
aa(lp6557
I410
aI554
aa(lp6558
I411
aI560
aa(lp6559
I411
aI564
aa(lp6560
I411
aI568
aa(lp6561
I411
aI570
aa(lp6562
I411
aI574
aa(lp6563
I411
aI578
aa(lp6564
I411
aI581
aa(lp6565
I411
aI585
aa(lp6566
I411
aI597
aa(lp6567
I411
aI603
aa(lp6568
I411
aI610
aa(lp6569
I411
aI614
aa(lp6570
I411
aI618
aa(lp6571
I411
aI624
aa(lp6572
I410
aI628
aa(lp6573
I407
aI631
aa(lp6574
I405
aI633
aa(lp6575
I403
aI637
aa(lp6576
I401
aI641
aa(lp6577
I398
aI644
aa(lp6578
I396
aI648
aa(lp6579
I393
aI652
aa(lp6580
I391
aI656
aa(lp6581
I387
aI660
aa(lp6582
I383
aI662
aa(lp6583
I377
aI666
aa(lp6584
I373
aI668
aa(lp6585
I369
aI672
aa(lp6586
I357
aI677
aa(lp6587
I347
aI681
aa(lp6588
I340
aI682
aa(lp6589
I337
aI683
aa(lp6590
I329
aI685
aa(lp6591
I323
aI686
aa(lp6592
I319
aI687
aa(lp6593
I311
aI687
aa(lp6594
I304
aI687
aa(lp6595
I299
aI687
aa(lp6596
I291
aI687
aa(lp6597
I284
aI687
aa(lp6598
I273
aI687
aa(lp6599
I266
aI687
aa(lp6600
I262
aI687
aa(lp6601
I255
aI687
aa(lp6602
I251
aI687
aa(lp6603
I247
aI687
aa(lp6604
I240
aI687
aa(lp6605
I236
aI687
aa(lp6606
I233
aI687
aa(lp6607
I229
aI687
aa(lp6608
I219
aI687
aa(lp6609
I216
aI687
aa(lp6610
I209
aI684
aa(lp6611
I205
aI678
aa(lp6612
I200
aI672
aa(lp6613
I194
aI666
aa(lp6614
I185
aI657
aa(lp6615
I180
aI649
aa(lp6616
I177
aI642
aa(lp6617
I172
aI632
aa(lp6618
I168
aI618
aa(lp6619
I165
aI603
aa(lp6620
I163
aI594
aa(lp6621
I161
aI579
aa(lp6622
I159
aI572
aa(lp6623
I157
aI561
aa(lp6624
I157
aI552
aa(lp6625
I155
aI537
aa(lp6626
I155
aI522
aa(lp6627
I155
aI512
aa(lp6628
I155
aI492
aa(lp6629
I153
aI484
aa(lp6630
I153
aI475
aa(lp6631
I153
aI463
aa(lp6632
I153
aI453
aa(lp6633
I153
aI438
aa(lp6634
I153
aI430
aa(lp6635
I153
aI421
aa(lp6636
I153
aI411
aa(lp6637
I153
aI403
aa(lp6638
I153
aI394
aa(lp6639
I153
aI387
aa(lp6640
I153
aI381
aa(lp6641
I153
aI374
aa(lp6642
I153
aI366
aa(lp6643
I153
aI358
aa(lp6644
I153
aI351
aa(lp6645
I153
aI345
aa(lp6646
I153
aI340
aa(lp6647
I153
aI332
aa(lp6648
I156
aI314
aa(lp6649
I157
aI308
aa(lp6650
I159
aI302
aa(lp6651
I162
aI295
aa(lp6652
I163
aI288
aa(lp6653
I163
aI280
aa(lp6654
I164
aI274
aa(lp6655
I169
aI266
aa(lp6656
I169
aI258
aa(lp6657
I170
aI253
aa(lp6658
I171
aI248
aa(lp6659
I171
aI243
aa(lp6660
I171
aI237
aa(lp6661
I171
aI231
aa(lp6662
I171
aI227
aa(lp6663
I171
aI223
aa(lp6664
I171
aI216
aa(lp6665
I171
aI212
aa(lp6666
I171
aI209
aa(lp6667
I171
aI206
aa(lp6668
I171
aI201
aa(lp6669
I171
aI196
aa(lp6670
I171
aI190
aa(lp6671
I171
aI186
aa(lp6672
I171
aI182
aa(lp6673
I171
aI180
aa(lp6674
I171
aI176
aa(lp6675
I171
aI172
aa(lp6676
I169
aI167
aa(lp6677
I168
aI163
aa(lp6678
I165
aI161
aa(lp6679
I163
aI157
aa(lp6680
I160
aI154
aa(lp6681
I159
aI152
aa(lp6682
I156
aI149
aa(lp6683
I154
aI148
aa(lp6684
I153
aI146
aa(lp6685
I150
aI143
aa(lp6686
I148
aI142
aa(lp6687
I146
aI141
aa(lp6688
I145
aI139
aa(lp6689
I144
aI138
aa(lp6690
I143
aI137
aa(lp6691
I141
aI137
aa(lp6692
I140
aI134
aa(lp6693
I139
aI134
aa(lp6694
I137
aI133
aa(lp6695
I136
aI132
aa(lp6696
I135
aI132
aa(lp6697
I134
aI132
aa(lp6698
I134
aI131
aa(lp6699
I132
aI131
aa(lp6700
I131
aI131
aa(lp6701
I130
aI131
aa(lp6702
I129
aI129
aa(lp6703
I127
aI129
aa(lp6704
I126
aI129
aa(lp6705
I124
aI129
aa(lp6706
I122
aI129
aa(lp6707
I121
aI129
aa(lp6708
I120
aI129
aa(lp6709
I119
aI129
aa(lp6710
I117
aI129
aa(lp6711
I115
aI129
aa(lp6712
I114
aI129
aa(lp6713
I111
aI129
aa(lp6714
I110
aI129
aa(lp6715
I105
aI129
aa(lp6716
I103
aI129
aa(lp6717
I102
aI129
aa(lp6718
I100
aI129
aa(lp6719
I97
aI129
aa(lp6720
I96
aI129
aa(lp6721
I93
aI129
aa(lp6722
I92
aI129
aa(lp6723
I91
aI131
aa(lp6724
I90
aI133
aa(lp6725
I87
aI137
aa(lp6726
I86
aI141
aa(lp6727
I85
aI142
aa(lp6728
I83
aI144
aa(lp6729
I82
aI147
aa(lp6730
I81
aI149
aa(lp6731
I80
aI153
aa(lp6732
I78
aI156
aa(lp6733
I77
aI158
aa(lp6734
I76
aI161
aa(lp6735
I75
aI165
aa(lp6736
I75
aI167
aa(lp6737
I73
aI170
aa(lp6738
I72
aI172
aa(lp6739
I71
aI176
aa(lp6740
I69
aI178
aa(lp6741
I69
aI182
aa(lp6742
I69
aI186
aa(lp6743
I68
aI190
aa(lp6744
I68
aI193
aa(lp6745
I67
aI197
aa(lp6746
I66
aI200
aa(lp6747
I64
aI204
aa(lp6748
I64
aI211
aa(lp6749
I64
aI215
aa(lp6750
I64
aI219
aa(lp6751
I63
aI222
aa(lp6752
I63
aI225
aa(lp6753
I63
aI229
aa(lp6754
I63
aI230
aa(lp6755
I63
aI234
aa(lp6756
I63
aI238
aa(lp6757
I63
aI241
aa(lp6758
I63
aI245
aa(lp6759
I63
aI251
aa(lp6760
I63
aI255
aa(lp6761
I63
aI259
aa(lp6762
I63
aI263
aa(lp6763
I63
aI266
aa(lp6764
I63
aI270
aa(lp6765
I63
aI274
aa(lp6766
I63
aI278
aa(lp6767
I63
aI282
aa(lp6768
I63
aI284
aa(lp6769
I63
aI288
aa(lp6770
I63
aI292
aa(lp6771
I63
aI295
aa(lp6772
I63
aI299
aa(lp6773
I63
aI306
aa(lp6774
I63
aI309
aa(lp6775
I63
aI313
aa(lp6776
I63
aI317
aa(lp6777
I63
aI323
aa(lp6778
I63
aI327
aa(lp6779
I64
aI331
aa(lp6780
I66
aI334
aa(lp6781
I66
aI338
aa(lp6782
I67
aI342
aa(lp6783
I68
aI348
aa(lp6784
I68
aI355
aa(lp6785
I69
aI358
aa(lp6786
I69
aI362
aa(lp6787
I71
aI368
aa(lp6788
I71
aI372
aa(lp6789
I72
aI376
aa(lp6790
I72
aI380
aa(lp6791
I73
aI384
aa(lp6792
I73
aI391
aa(lp6793
I73
aI394
aa(lp6794
I73
aI397
aa(lp6795
I73
aI401
aa(lp6796
I73
aI404
aa(lp6797
I75
aI408
aa(lp6798
I75
aI411
aa(lp6799
I76
aI415
aa(lp6800
I76
aI419
aa(lp6801
I77
aI423
aa(lp6802
I78
aI426
aa(lp6803
I78
aI430
aa(lp6804
I80
aI434
aa(lp6805
I81
aI436
aa(lp6806
I82
aI439
aa(lp6807
I82
aI443
aa(lp6808
I83
aI445
aa(lp6809
I85
aI449
aa(lp6810
I86
aI452
aa(lp6811
I87
aI454
aa(lp6812
I88
aI455
aa(lp6813
I91
aI458
aa(lp6814
I92
aI459
aa(lp6815
I95
aI459
aa(lp6816
I96
aI460
aa(lp6817
I97
aI462
aa(lp6818
I100
aI463
aa(lp6819
I101
aI463
aa(lp6820
I103
aI463
aa(lp6821
I106
aI463
aa(lp6822
I109
aI463
aa(lp6823
I112
aI463
aa(lp6824
I116
aI463
aa(lp6825
I119
aI463
aa(lp6826
I121
aI463
aa(lp6827
I125
aI463
aa(lp6828
I129
aI463
aa(lp6829
I131
aI463
aa(lp6830
I135
aI463
aa(lp6831
I139
aI463
aa(lp6832
I148
aI463
aa(lp6833
I151
aI462
aa(lp6834
I155
aI459
aa(lp6835
I160
aI457
aa(lp6836
I165
aI454
aa(lp6837
I169
aI452
aa(lp6838
I173
aI449
aa(lp6839
I178
aI447
aa(lp6840
I182
aI444
aa(lp6841
I185
aI443
aa(lp6842
I189
aI442
aa(lp6843
I193
aI440
aa(lp6844
I198
aI438
aa(lp6845
I202
aI436
aa(lp6846
I205
aI435
aa(lp6847
I208
aI434
aa(lp6848
I210
aI434
aa(lp6849
I214
aI431
aa(lp6850
I217
aI431
aa(lp6851
I219
aI430
aa(lp6852
I222
aI430
aa(lp6853
I224
aI429
aa(lp6854
I227
aI429
aa(lp6855
I228
aI429
aa(lp6856
I231
aI429
aa(lp6857
I233
aI429
aa(lp6858
I234
aI429
aa(lp6859
I236
aI429
aa(lp6860
I237
aI429
aa(lp6861
I238
aI428
aa(lp6862
I242
aI428
aa(lp6863
I244
aI426
aa(lp6864
I246
aI426
aa(lp6865
I247
aI426
aa(lp6866
I248
aI426
aa(lp6867
I251
aI426
aa(lp6868
I253
aI425
aa(lp6869
I256
aI425
aa(lp6870
I257
aI425
aa(lp6871
I261
aI425
aa(lp6872
I262
aI425
aa(lp6873
I265
aI425
aa(lp6874
I267
aI425
aa(lp6875
I272
aI425
aa(lp6876
I277
aI425
aa(lp6877
I280
aI425
aa(lp6878
I282
aI425
aa(lp6879
I286
aI425
aa(lp6880
I289
aI425
aa(lp6881
I292
aI425
aa(lp6882
I295
aI425
aa(lp6883
I297
aI425
aa(lp6884
I300
aI425
aa(lp6885
I302
aI425
aa(lp6886
I306
aI425
aa(lp6887
I314
aI425
aa(lp6888
I316
aI425
aa(lp6889
I321
aI425
aa(lp6890
I325
aI425
aa(lp6891
I329
aI425
aa(lp6892
I333
aI425
aa(lp6893
I338
aI425
aa(lp6894
I344
aI425
aa(lp6895
I349
aI425
aa(lp6896
I354
aI425
aa(lp6897
I359
aI425
aa(lp6898
I365
aI425
aa(lp6899
I373
aI425
aa(lp6900
I379
aI425
aa(lp6901
I384
aI425
aa(lp6902
I392
aI425
aa(lp6903
I398
aI425
aa(lp6904
I406
aI425
aa(lp6905
I414
aI425
aa(lp6906
I423
aI425
aa(lp6907
I432
aI425
aa(lp6908
I441
aI425
aa(lp6909
I451
aI424
aa(lp6910
I459
aI422
aa(lp6911
I469
aI419
aa(lp6912
I482
aI415
aa(lp6913
I500
aI408
aa.